ASxxxx Linker V03.00/V05.40 + sdld,  page 1.
Hexadecimal  [32-Bits]

Area                       Addr        Size        Decimal Bytes (Attributes)
--------------------       ----        ----        ------- ----- ------------
.  .ABS.               00000000    00000000 =           0. bytes (ABS,CON)

        Value  Global            Value  Global            Value  Global    
        -----  ------            -----  ------            -----  ------    
     00000000  .__.ABS.  |    00000000  _rMBC7_SR |    00000000  _rRAMG   
     00000000  l__BASE   |    00000000  l__BSS    |    00000000  l__CABS  
     00000000  l__CODE_0 |    00000000  l__DABS   |    00000000  l__FONT_H
     00000000  l__HEADER |    00000000  l__HEADER |    00000000  l__HEAP  
     00000000  l__HEAP_E |    00000000  l__HRAM   |    00000000  l__LIT   
     00000000  s__CABS   |    00000000  s__CABS0  |    00000000  s__DABS  
     00000000  s__FONT_H |    00000000  s__FONT_H |    00000000  s__HEADER
     00000000  s__HEADER |    00000000  s__HEADER |    00000000  s__HEADER
     00000000  s__HEADER |    00000000  s__HEADER |    00000000  s__HEADER
     00000000  s__HEADER |    00000000  s__HEADER |    00000000  s__HEADER
     00000000  s__HEADER |    00000000  s__HRAM   |    00000000  s__HRAM8 
     00000001  _rROMB0   |    00000001  l__GSFINA |    00000001  l__HEADER
     00000001  l__HEADER |    00000003  l__CABS0  |    00000003  l__FONT_H
     00000003  l__HEADER |    00000003  l__HEADER |    00000003  l__HRAM8 
     00000005  l__HEADER |    00000006  l__INITIA |    00000006  l__INITIA
     00000007  l__HEADER |    00000008  l__HEADER |    0000000C  l__GSINIT
     00000058  l__DATA   |    00000060  l__HEADER |    0000009C  l__HEADER
     00000200  s__CODE   |    00000851  l__HOME   |    00000B42  l__CODE  
     00000D42  s__HOME   |    00001593  s__BASE   |    00001593  s__CODE_0
     00001593  s__INITIA |    00001593  s__LIT    |    00001599  s__GSINIT
     000015A5  s__GSFINA |    00003000  _rROMB1   |    00004000  _rMBC7_SR
     00004000  _rRAMB    |    00008000  __VRAM    |    00008000  __VRAM800
     00008800  __VRAM880 |    00009000  __VRAM900 |    00009800  __SCRN0  
     00009C00  __SCRN1   |    0000A000  __SRAM    |    0000A000  _rMBC7_LA
     0000A010  _rMBC7_LA |    0000A020  _rMBC7_AC |    0000A030  _rMBC7_AC
     0000A040  _rMBC7_AC |    0000A050  _rMBC7_AC |    0000C000  __RAM    
     0000C000  _shadow_O |    0000C0A0  s__DATA   |    0000C0F8  s__BSS   
     0000C0F8  s__INITIA |    0000C0FE  s__HEAP   |    0000C0FE  s__HEAP_E
     0000D000  __RAMBANK |    0000E000  .STACK    |    0000FE00  __OAMRAM 
     0000FF00  _P1_REG   |    0000FF00  __IO      |    0000FF01  _SB_REG  
     0000FF02  _SC_REG   |    0000FF04  _DIV_REG  |    0000FF05  _TIMA_REG
     0000FF06  _TMA_REG  |    0000FF07  _TAC_REG  |    0000FF0F  _IF_REG  
     0000FF10  _LCDC_REG |    0000FF11  _STAT_REG |    0000FF12  _SCY_REG 
     0000FF13  _SCX_REG  |    0000FF14  _OBP0_REG |    0000FF15  _OBP1_REG
     0000FF16  _WY_REG   |    0000FF17  _WX_REG   |    0000FF18  _LY_REG  
     0000FF19  _LYC_REG  |    0000FF1A  _DMA_REG  |    0000FF1B  _BGP_REG 
     0000FF20  _NR10_REG |    0000FF21  _NR12_REG |    0000FF22  _NR11_REG
     0000FF23  _NR13_REG |    0000FF24  _NR14_REG |    0000FF25  _NR21_REG
     0000FF27  _NR22_REG |    0000FF28  _NR23_REG |    0000FF29  _NR24_REG
     0000FF2A  _NR30_REG |    0000FF2B  _NR31_REG |    0000FF2C  _NR32_REG
     0000FF2D  _NR34_REG |    0000FF2E  _NR33_REG |    0000FF30  _AUD3WAVE
     0000FF30  _PCM_SAMP |    0000FF30  __AUD3WAV |    0000FF40  _NR41_REG
     0000FF41  _NR43_REG |    0000FF42  _NR42_REG |    0000FF43  _NR44_REG
     0000FF44  _NR50_REG |    0000FF45  _NR52_REG |    0000FF46  _NR51_REG
     0000FF4D  _KEY1_REG |    0000FF4F  _VBK_REG  |    0000FF51  _HDMA1_RE
     0000FF52  _HDMA2_RE |    0000FF53  _HDMA3_RE |    0000FF54  _HDMA4_RE
     0000FF55  _HDMA5_RE |    0000FF56  _RP_REG   |    0000FF68  _BCPS_REG
     0000FF69  _BCPD_REG |    0000FF6A  _OCPS_REG |    0000FF6B  _OCPD_REG
     0000FF70  _SVBK_REG |    0000FF76  _PCM12_RE |    0000FF77  _PCM34_RE
     0000FF80  .refresh_ |    0000FF80  __HRAM    |    0000FFFF  _IE_REG  
ASxxxx Linker V03.00/V05.40 + sdld,  page 2.
Hexadecimal  [32-Bits]

Area                       Addr        Size        Decimal Bytes (Attributes)
--------------------       ----        ----        ------- ----- ------------
_CODE                  00000200    00000B42 =        2882. bytes (REL,CON)

        Value  Global            Value  Global            Value  Global    
        -----  ------            -----  ------            -----  ------    
     000003EB  _main     |    000004F5  _duck_io_ |    00000572  _duck_io_
     0000065C  _duck_io_ |    00000687  _duck_io_ |    00000698  _duck_io_
     000006A8  _duck_io_ |    000006BC  _duck_io_ |    000006E2  _duck_io_
     00000701  _duck_io_ |    0000078D  _duck_io_ |    0000086E  _duck_io_
     0000089A  _duck_io_ |    000008A0  _duck_io_ |    000008A6  __divsuch
     000008AC  __modsuch |    000008B5  __divusch |    000008BE  __modusch
     000008CA  __divscha |    000008CF  __modscha |    000008D6  __divsint
     000008DF  __modsint |    000008EB  __divucha |    000008F0  __moducha
     000008F7  __divuint |    00000900  __moduint |    0000090C  .div8    
     0000090C  .mod8     |    00000914  .div16    |    00000914  .mod16   
     0000094A  .divu8    |    0000094A  .modu8    |    0000094D  .divu16  
     0000094D  .modu16   |    0000098D  _printf   |    000009A2  ___crlf  
     000009DD  ___printf |    00000D23  _sprintf 
ASxxxx Linker V03.00/V05.40 + sdld,  page 3.
Hexadecimal  [32-Bits]

Area                       Addr        Size        Decimal Bytes (Attributes)
--------------------       ----        ----        ------- ----- ------------
_HEADER0               00000000    00000003 =           3. bytes (ABS,CON)

        Value  Global            Value  Global            Value  Global    
        -----  ------            -----  ------            -----  ------    
ASxxxx Linker V03.00/V05.40 + sdld,  page 4.
Hexadecimal  [32-Bits]

Area                       Addr        Size        Decimal Bytes (Attributes)
--------------------       ----        ----        ------- ----- ------------
_HEADER1               00000000    00000001 =           1. bytes (ABS,CON)

        Value  Global            Value  Global            Value  Global    
        -----  ------            -----  ------            -----  ------    
     00000020  .call_hl 
ASxxxx Linker V03.00/V05.40 + sdld,  page 5.
Hexadecimal  [32-Bits]

Area                       Addr        Size        Decimal Bytes (Attributes)
--------------------       ----        ----        ------- ----- ------------
_HEADER2               00000000    00000005 =           5. bytes (ABS,CON)

        Value  Global            Value  Global            Value  Global    
        -----  ------            -----  ------            -----  ------    
     00000028  .MemsetSm
ASxxxx Linker V03.00/V05.40 + sdld,  page 6.
Hexadecimal  [32-Bits]

Area                       Addr        Size        Decimal Bytes (Attributes)
--------------------       ----        ----        ------- ----- ------------
_HEADER3               00000000    00000007 =           7. bytes (ABS,CON)

        Value  Global            Value  Global            Value  Global    
        -----  ------            -----  ------            -----  ------    
     00000030  .MemcpySm
ASxxxx Linker V03.00/V05.40 + sdld,  page 7.
Hexadecimal  [32-Bits]

Area                       Addr        Size        Decimal Bytes (Attributes)
--------------------       ----        ----        ------- ----- ------------
_HEADER4               00000000    00000008 =           8. bytes (ABS,CON)

        Value  Global            Value  Global            Value  Global    
        -----  ------            -----  ------            -----  ------    
ASxxxx Linker V03.00/V05.40 + sdld,  page 8.
Hexadecimal  [32-Bits]

Area                       Addr        Size        Decimal Bytes (Attributes)
--------------------       ----        ----        ------- ----- ------------
_HEADER5               00000000    00000060 =          96. bytes (ABS,CON)

        Value  Global            Value  Global            Value  Global    
        -----  ------            -----  ------            -----  ------    
     00000080  .int      |    0000008F  _wait_int |    0000009C  __standar
     000000AB  _refresh_ |    000000CC  _set_inte
ASxxxx Linker V03.00/V05.40 + sdld,  page 9.
Hexadecimal  [32-Bits]

Area                       Addr        Size        Decimal Bytes (Attributes)
--------------------       ----        ----        ------- ----- ------------
_HEADER6               00000000    00000001 =           1. bytes (ABS,CON)

        Value  Global            Value  Global            Value  Global    
        -----  ------            -----  ------            -----  ------    
ASxxxx Linker V03.00/V05.40 + sdld,  page 10.
Hexadecimal  [32-Bits]

Area                       Addr        Size        Decimal Bytes (Attributes)
--------------------       ----        ----        ------- ----- ------------
_HEADER7               00000000    0000009C =         156. bytes (ABS,CON)

        Value  Global            Value  Global            Value  Global    
        -----  ------            -----  ------            -----  ------    
     00000150  .code_sta |    00000150  .reset    |    00000150  _reset   
     000001AA  _exit     |    000001AE  .wait_vbl |    000001AE  _vsync   
     000001AE  _wait_vbl |    000001BE  .remove_V |    000001BE  _remove_V
     000001C1  .remove_i |    000001DE  .add_VBL  |    000001DE  _add_VBL 
     000001E1  .add_int 
ASxxxx Linker V03.00/V05.40 + sdld,  page 11.
Hexadecimal  [32-Bits]

Area                       Addr        Size        Decimal Bytes (Attributes)
--------------------       ----        ----        ------- ----- ------------
_HOME                  00000D42    00000851 =        2129. bytes (REL,CON)

        Value  Global            Value  Global            Value  Global    
        -----  ------            -----  ------            -----  ------    
     00000D42  .memset_s |    00000D4B  .memcpy_s |    00000D68  .display_
     00000D68  _display_ |    00000D80  _font_loa |    00000D87  font_load
     00000DCF  font_copy |    00000E05  font_set  |    00000E12  .put_char
     00000E2A  .out_char |    00000E30  .del_char |    00000E86  _putchar 
     00000E8F  _setchar  |    00000E98  _font_loa |    00000EA6  _font_set
     00000EB5  _font_ini |    00000ED4  .cls      |    00000ED4  _cls     
     00000EF6  _gotoxy   |    00000F01  _posx     |    00000F12  _posy    
     00000F3A  .cr_curs  |    00000F4F  .adv_curs |    00000FAB  .tmode   
     00000FC8  .tmode_ou |    00000FD1  .padup    |    00000FD1  _waitpadu
     00000FE1  .jpad     |    00000FE1  _joypad   |    00001009  _waitpad 
     0000100A  .wait_pad |    00001011  _color    |    00001011  _set_1bpp
     00001020  _puts     |    00001045  .drawing_ |    00001062  _font_ibm
     00001443  .add_LCD  |    00001443  _add_LCD  |    00001449  .remove_L
     00001449  _remove_L |    0000144F  _set_tile |    00001454  _set_bkg_
     00001454  _set_win_ |    0000145C  _set_spri |    0000148C  _set_bkg_
     0000148C  _set_win_ |    00001494  _set_spri |    000014EC  _uitoa   
     000014FB  _itoa     |    0000150A  .itoa     |    0000151E  .utoa    
     00001592  ___sdcc_c
ASxxxx Linker V03.00/V05.40 + sdld,  page 12.
Hexadecimal  [32-Bits]

Area                       Addr        Size        Decimal Bytes (Attributes)
--------------------       ----        ----        ------- ----- ------------
_INITIALIZER           00001593    00000006 =           6. bytes (REL,CON)

        Value  Global            Value  Global            Value  Global    
        -----  ------            -----  ------            -----  ------    
ASxxxx Linker V03.00/V05.40 + sdld,  page 13.
Hexadecimal  [32-Bits]

Area                       Addr        Size        Decimal Bytes (Attributes)
--------------------       ----        ----        ------- ----- ------------
_GSINIT                00001599    0000000C =          12. bytes (REL,CON)

        Value  Global            Value  Global            Value  Global    
        -----  ------            -----  ------            -----  ------    
     00001599  gsinit   
ASxxxx Linker V03.00/V05.40 + sdld,  page 14.
Hexadecimal  [32-Bits]

Area                       Addr        Size        Decimal Bytes (Attributes)
--------------------       ----        ----        ------- ----- ------------
_GSFINAL               000015A5    00000001 =           1. bytes (REL,CON)

        Value  Global            Value  Global            Value  Global    
        -----  ------            -----  ------            -----  ------    
ASxxxx Linker V03.00/V05.40 + sdld,  page 15.
Hexadecimal  [32-Bits]

Area                       Addr        Size        Decimal Bytes (Attributes)
--------------------       ----        ----        ------- ----- ------------
_DATA                  0000C0A0    00000058 =          88. bytes (REL,CON)

        Value  Global            Value  Global            Value  Global    
        -----  ------            -----  ------            -----  ------    
     0000C0A0  __cpu     |    0000C0A1  __is_GBA  |    0000C0A2  .mode    
     0000C0A3  .sys_time |    0000C0A3  _sys_time |    0000C0A5  .int_0x40
     0000C0B1  _rtc      |    0000C0BA  _duck_io_ |    0000C0BB  _duck_io_
     0000C0BC  _duck_io_ |    0000C0CA  _duck_io_ |    0000C0CB  _duck_io_
     0000C0D9  _duck_io_ |    0000C0DA  font_curr |    0000C0DD  font_firs
     0000C0DE  font_tabl |    0000C0F0  .int_0x48
ASxxxx Linker V03.00/V05.40 + sdld,  page 16.
Hexadecimal  [32-Bits]

Area                       Addr        Size        Decimal Bytes (Attributes)
--------------------       ----        ----        ------- ----- ------------
_INITIALIZED           0000C0F8    00000006 =           6. bytes (REL,CON)

        Value  Global            Value  Global            Value  Global    
        -----  ------            -----  ------            -----  ------    
     0000C0F8  _duck_io_ |    0000C0F9  .curx     |    0000C0FA  .cury    
     0000C0FB  .fg_colou |    0000C0FB  __current |    0000C0FC  .bg_colou
     0000C0FD  .draw_mod
ASxxxx Linker V03.00/V05.40 + sdld,  page 17.
Hexadecimal  [32-Bits]

Area                       Addr        Size        Decimal Bytes (Attributes)
--------------------       ----        ----        ------- ----- ------------
_HRAM8                 00000000    00000003 =           3. bytes (ABS,CON)

        Value  Global            Value  Global            Value  Global    
        -----  ------            -----  ------            -----  ------    
     0000FF90  __current |    0000FF91  __vbl_don |    0000FF92  __shadow_
ASxxxx Linker V03.00/V05.40 + sdld,  page 18.
Hexadecimal  [32-Bits]

Area                       Addr        Size        Decimal Bytes (Attributes)
--------------------       ----        ----        ------- ----- ------------
_CABS0                 00000000    00000003 =           3. bytes (ABS,CON)

        Value  Global            Value  Global            Value  Global    
        -----  ------            -----  ------            -----  ------    
ASxxxx Linker V03.00/V05.40 + sdld,  page 19.
Hexadecimal  [32-Bits]

Area                       Addr        Size        Decimal Bytes (Attributes)
--------------------       ----        ----        ------- ----- ------------
_FONT_HEADER0          00000000    00000003 =           3. bytes (ABS,CON)

        Value  Global            Value  Global            Value  Global    
        -----  ------            -----  ------            -----  ------    
ASxxxx Linker V03.00/V05.40 + sdld,  page 20.
Hexadecimal  [32-Bits]

Area                       Addr        Size        Decimal Bytes (Attributes)
--------------------       ----        ----        ------- ----- ------------
_HEADER_LCD0           00000000    00000003 =           3. bytes (ABS,CON)

        Value  Global            Value  Global            Value  Global    
        -----  ------            -----  ------            -----  ------    
ASxxxx Linker V03.00/V05.40 + sdld,  page 21.

Files Linked                              [ module(s) ]

../../../lib/duck/crt0.o                  [ Runtime ]
obj/duck/main.o                           [ main ]
obj/duck/megaduck_rtc.o                   [ megaduck_rtc ]


Libraries Linked                          [ object file ]

../../../lib/duck/duck.lib                [ megaduck_laptop_io.o ]
../../../lib/duck/duck.lib                [ font.o ]
../../../lib/sm83/sm83.lib                [ div.o ]
../../../lib/duck/duck.lib                [ pad.o ]
../../../lib/duck/duck.lib                [ color.o ]
../../../lib/duck/duck.lib                [ sfr.o ]
../../../lib/sm83/sm83.lib                [ puts.o ]
../../../lib/duck/duck.lib                [ drawing_isr.o ]
../../../lib/duck/duck.lib                [ f_ibm_sh.o ]
../../../lib/duck/duck.lib                [ lcd.o ]
../../../lib/sm83/sm83.lib                [ printf.o ]
../../../lib/duck/duck.lib                [ set_data.o ]
../../../lib/duck/duck.lib                [ crlf.o ]
../../../lib/duck/duck.lib                [ set_1bit_data.o ]
../../../lib/sm83/sm83.lib                [ sprintf.o ]
../../../lib/sm83/sm83.lib                [ itoa.o ]
../../../lib/sm83/sm83.lib                [ __sdcc_call_hl.o ]

ASxxxx Linker V03.00/V05.40 + sdld,  page 22.

User Base Address Definitions

_DATA=0xC0A0
_CODE=0x0200
ASxxxx Linker V03.00/V05.40 + sdld,  page 23.

User Global Definitions

_shadow_OAM=0xC000
.STACK=0xE000
.refresh_OAM=0xFF80

