                                      1 ;--------------------------------------------------------
                                      2 ; File Created by SDCC : free open source ISO C Compiler
                                      3 ; Version 4.5.1 #15267 (Mac OS X ppc)
                                      4 ;--------------------------------------------------------
                                      5 	.module main
                                      6 	
                                      7 ;--------------------------------------------------------
                                      8 ; Public variables in this module
                                      9 ;--------------------------------------------------------
                                     10 	.globl _main
                                     11 	.globl _RTC_START
                                     12 	.globl _RTC_SET
                                     13 	.globl _RTC_GET
                                     14 	.globl _puts
                                     15 	.globl _printf
                                     16 	.globl _gotoxy
                                     17 	.globl _vsync
                                     18 	.globl _waitpadup
                                     19 	.globl _joypad
                                     20 	.globl _rtc
                                     21 	.globl _RTC_VALUE_REG
                                     22 	.globl _RTC_LATCH_REG
                                     23 	.globl _RTC_SELECT_REG
                                     24 ;--------------------------------------------------------
                                     25 ; special function registers
                                     26 ;--------------------------------------------------------
                                     27 ;--------------------------------------------------------
                                     28 ; ram data
                                     29 ;--------------------------------------------------------
                                     30 	.area _DATA
                         00004000    31 _RTC_SELECT_REG	=	0x4000
                         00006000    32 _RTC_LATCH_REG	=	0x6000
                         0000A000    33 _RTC_VALUE_REG	=	0xa000
    00000000                         34 _rtc::
    00000000                         35 	.ds 5
                                     36 ;--------------------------------------------------------
                                     37 ; ram data
                                     38 ;--------------------------------------------------------
                                     39 	.area _INITIALIZED
                                     40 ;--------------------------------------------------------
                                     41 ; absolute external ram data
                                     42 ;--------------------------------------------------------
                                     43 	.area _DABS (ABS)
                                     44 ;--------------------------------------------------------
                                     45 ; global & static initialisations
                                     46 ;--------------------------------------------------------
                                     47 	.area _HOME
                                     48 	.area _GSINIT
                                     49 	.area _GSFINAL
                                     50 	.area _GSINIT
                                     51 ;--------------------------------------------------------
                                     52 ; Home
                                     53 ;--------------------------------------------------------
                                     54 	.area _HOME
                                     55 	.area _HOME
                                     56 ;--------------------------------------------------------
                                     57 ; code
                                     58 ;--------------------------------------------------------
                                     59 	.area _CODE
                                     60 ;src/main.c:40: static void read_and_show_rtc_data(rtc_data_t * p_rtc) {
                                     61 ;	---------------------------------
                                     62 ; Function read_and_show_rtc_data
                                     63 ; ---------------------------------
    00000000                         64 _read_and_show_rtc_data:
    00000000 E8 F8            [16]   65 	add	sp, #-8
    00000002 4B               [ 4]   66 	ld	c, e
    00000003 42               [ 4]   67 	ld	b, d
                                     68 ;src/mbc3_rtc.h:29: inline void RTC_LATCH(void) { RTC_LATCH_REG = 0; RTC_LATCH_REG = 1; }
    00000004 AF               [ 4]   69 	xor	a, a
    00000005 21r00r00         [12]   70 	ld	hl, #_RTC_LATCH_REG
    00000008 77               [ 8]   71 	ld	(hl), a
    00000009 36 01            [12]   72 	ld	(hl), #0x01
                                     73 ;src/main.c:44: p_rtc->day  = RTC_GET(RTC_VALUE_DAY);
    0000000B 33               [ 8]   74 	inc	sp
    0000000C 33               [ 8]   75 	inc	sp
    0000000D C5               [16]   76 	push	bc
    0000000E C5               [16]   77 	push	bc
    0000000F 3E 0B            [ 8]   78 	ld	a, #0x0b
    00000011 CDr00r00         [24]   79 	call	_RTC_GET
    00000014 F8 08            [12]   80 	ldhl	sp,	#8
    00000016 79               [ 4]   81 	ld	a, c
    00000017 22               [ 8]   82 	ld	(hl+), a
    00000018 70               [ 8]   83 	ld	(hl), b
    00000019 C1               [12]   84 	pop	bc
    0000001A D1               [12]   85 	pop	de
    0000001B D5               [16]   86 	push	de
    0000001C F8 06            [12]   87 	ldhl	sp,	#6
    0000001E 2A               [ 8]   88 	ld	a, (hl+)
    0000001F 12               [ 8]   89 	ld	(de), a
    00000020 13               [ 8]   90 	inc	de
    00000021 7E               [ 8]   91 	ld	a, (hl)
    00000022 12               [ 8]   92 	ld	(de), a
                                     93 ;src/main.c:45: p_rtc->hour = RTC_GET(RTC_VALUE_HOUR);
    00000023 21 02 00         [12]   94 	ld	hl, #0x0002
    00000026 09               [ 8]   95 	add	hl, bc
    00000027 E5               [16]   96 	push	hl
    00000028 7D               [ 4]   97 	ld	a, l
    00000029 F8 08            [12]   98 	ldhl	sp,	#8
    0000002B 77               [ 8]   99 	ld	(hl), a
    0000002C E1               [12]  100 	pop	hl
    0000002D 7C               [ 4]  101 	ld	a, h
    0000002E F8 07            [12]  102 	ldhl	sp,	#7
    00000030 77               [ 8]  103 	ld	(hl), a
    00000031 C5               [16]  104 	push	bc
    00000032 3E 0A            [ 8]  105 	ld	a, #0x0a
    00000034 CDr00r00         [24]  106 	call	_RTC_GET
    00000037 59               [ 4]  107 	ld	e, c
    00000038 C1               [12]  108 	pop	bc
    00000039 7B               [ 4]  109 	ld	a, e
    0000003A F8 06            [12]  110 	ldhl	sp,	#6
    0000003C 5E               [ 8]  111 	ld	e, (hl)
    0000003D 23               [ 8]  112 	inc	hl
    0000003E 66               [ 8]  113 	ld	h, (hl)
    0000003F 6B               [ 4]  114 	ld	l, e
    00000040 77               [ 8]  115 	ld	(hl), a
                                    116 ;src/main.c:46: p_rtc->min  = RTC_GET(RTC_VALUE_MIN);
    00000041 59               [ 4]  117 	ld	e, c
    00000042 50               [ 4]  118 	ld	d, b
    00000043 13               [ 8]  119 	inc	de
    00000044 13               [ 8]  120 	inc	de
    00000045 13               [ 8]  121 	inc	de
    00000046 C5               [16]  122 	push	bc
    00000047 D5               [16]  123 	push	de
    00000048 3E 09            [ 8]  124 	ld	a, #0x09
    0000004A CDr00r00         [24]  125 	call	_RTC_GET
    0000004D 69               [ 4]  126 	ld	l, c
    0000004E D1               [12]  127 	pop	de
    0000004F C1               [12]  128 	pop	bc
    00000050 7D               [ 4]  129 	ld	a, l
    00000051 12               [ 8]  130 	ld	(de), a
                                    131 ;src/main.c:47: p_rtc->sec  = RTC_GET(RTC_VALUE_SEC);
    00000052 03               [ 8]  132 	inc	bc
    00000053 03               [ 8]  133 	inc	bc
    00000054 03               [ 8]  134 	inc	bc
    00000055 03               [ 8]  135 	inc	bc
    00000056 C5               [16]  136 	push	bc
    00000057 D5               [16]  137 	push	de
    00000058 3E 08            [ 8]  138 	ld	a, #0x08
    0000005A CDr00r00         [24]  139 	call	_RTC_GET
    0000005D 69               [ 4]  140 	ld	l, c
    0000005E D1               [12]  141 	pop	de
    0000005F C1               [12]  142 	pop	bc
    00000060 7D               [ 4]  143 	ld	a, l
    00000061 02               [ 8]  144 	ld	(bc), a
                                    145 ;src/main.c:49: gotoxy(0,6);
    00000062 C5               [16]  146 	push	bc
    00000063 D5               [16]  147 	push	de
    00000064 21 00 06         [12]  148 	ld	hl, #0x600
    00000067 E5               [16]  149 	push	hl
    00000068 CDr00r00         [24]  150 	call	_gotoxy
    0000006B E1               [12]  151 	pop	hl
                                    152 ;src/main.c:50: printf("Elapsed RTC Time:\n");
    0000006C 11rAAr00         [12]  153 	ld	de, #___str_1
    0000006F CDr00r00         [24]  154 	call	_puts
    00000072 D1               [12]  155 	pop	de
    00000073 C1               [12]  156 	pop	bc
                                    157 ;src/main.c:56: (uint16_t)p_rtc->sec);
    00000074 0A               [ 8]  158 	ld	a, (bc)
    00000075 F8 02            [12]  159 	ldhl	sp,	#2
    00000077 22               [ 8]  160 	ld	(hl+), a
                                    161 ;src/main.c:55: (uint16_t)p_rtc->min,
    00000078 AF               [ 4]  162 	xor	a, a
    00000079 22               [ 8]  163 	ld	(hl+), a
    0000007A 1A               [ 8]  164 	ld	a, (de)
    0000007B 22               [ 8]  165 	ld	(hl+), a
                                    166 ;src/main.c:54: (uint16_t)p_rtc->hour,
    0000007C AF               [ 4]  167 	xor	a, a
    0000007D 22               [ 8]  168 	ld	(hl+), a
    0000007E 2A               [ 8]  169 	ld	a, (hl+)
    0000007F 5F               [ 4]  170 	ld	e, a
    00000080 3A               [ 8]  171 	ld	a, (hl-)
    00000081 57               [ 4]  172 	ld	d, a
    00000082 1A               [ 8]  173 	ld	a, (de)
    00000083 22               [ 8]  174 	ld	(hl+), a
    00000084 36 00            [12]  175 	ld	(hl), #0x00
                                    176 ;src/main.c:53: (uint16_t)p_rtc->day,
    00000086 D1               [12]  177 	pop	de
    00000087 D5               [16]  178 	push	de
    00000088 1A               [ 8]  179 	ld	a, (de)
    00000089 4F               [ 4]  180 	ld	c, a
    0000008A 13               [ 8]  181 	inc	de
    0000008B 1A               [ 8]  182 	ld	a, (de)
    0000008C 47               [ 4]  183 	ld	b, a
                                    184 ;src/main.c:52: "Time: %u:%u:%u   \n",
    0000008D F8 02            [12]  185 	ldhl	sp,	#2
    0000008F 2A               [ 8]  186 	ld	a, (hl+)
    00000090 23               [ 8]  187 	inc	hl
    00000091 5F               [ 4]  188 	ld	e, a
    00000092 16 00            [ 8]  189 	ld	d, #0x00
    00000094 D5               [16]  190 	push	de
    00000095 2A               [ 8]  191 	ld	a, (hl+)
    00000096 23               [ 8]  192 	inc	hl
    00000097 5F               [ 4]  193 	ld	e, a
    00000098 16 00            [ 8]  194 	ld	d, #0x00
    0000009A D5               [16]  195 	push	de
    0000009B 5E               [ 8]  196 	ld	e, (hl)
    0000009C 16 00            [ 8]  197 	ld	d, #0x00
    0000009E D5               [16]  198 	push	de
    0000009F C5               [16]  199 	push	bc
    000000A0 11rBCr00         [12]  200 	ld	de, #___str_2
    000000A3 D5               [16]  201 	push	de
    000000A4 CDr00r00         [24]  202 	call	_printf
                                    203 ;src/main.c:57: }
    000000A7 E8 12            [16]  204 	add	sp, #18
    000000A9 C9               [16]  205 	ret
    000000AA                        206 ___str_1:
    000000AA 45 6C 61 70 73 65 64   207 	.ascii "Elapsed RTC Time:"
             20 52 54 43 20 54 69
             6D 65 3A
    000000BB 00                     208 	.db 0x00
    000000BC                        209 ___str_2:
    000000BC 44 61 79 73 3A 20 25   210 	.ascii "Days: %u  "
             75 20 20
    000000C6 0A                     211 	.db 0x0a
    000000C7 54 69 6D 65 3A 20 25   212 	.ascii "Time: %u:%u:%u   "
             75 3A 25 75 3A 25 75
             20 20 20
    000000D8 0A                     213 	.db 0x0a
    000000D9 00                     214 	.db 0x00
                                    215 ;src/main.c:60: static void write_rtc_data(rtc_data_t * p_rtc) {
                                    216 ;	---------------------------------
                                    217 ; Function write_rtc_data
                                    218 ; ---------------------------------
    000000DA                        219 _write_rtc_data:
    000000DA E8 F8            [16]  220 	add	sp, #-8
    000000DC 4B               [ 4]  221 	ld	c, e
    000000DD 42               [ 4]  222 	ld	b, d
                                    223 ;src/main.c:65: p_rtc->day     = 0u; // Supported range: 0-511
    000000DE 33               [ 8]  224 	inc	sp
    000000DF 33               [ 8]  225 	inc	sp
    000000E0 C5               [16]  226 	push	bc
    000000E1 E1               [12]  227 	pop	hl
    000000E2 E5               [16]  228 	push	hl
    000000E3 AF               [ 4]  229 	xor	a, a
    000000E4 22               [ 8]  230 	ld	(hl+), a
    000000E5 77               [ 8]  231 	ld	(hl), a
                                    232 ;src/main.c:66: p_rtc->hour    = 0u; // Supported range: 0-23
    000000E6 21 02 00         [12]  233 	ld	hl, #0x0002
    000000E9 09               [ 8]  234 	add	hl, bc
    000000EA E5               [16]  235 	push	hl
    000000EB 7D               [ 4]  236 	ld	a, l
    000000EC F8 08            [12]  237 	ldhl	sp,	#8
    000000EE 77               [ 8]  238 	ld	(hl), a
    000000EF E1               [12]  239 	pop	hl
    000000F0 7C               [ 4]  240 	ld	a, h
    000000F1 F8 07            [12]  241 	ldhl	sp,	#7
    000000F3 32               [ 8]  242 	ld	(hl-), a
    000000F4 2A               [ 8]  243 	ld	a, (hl+)
    000000F5 66               [ 8]  244 	ld	h, (hl)
    000000F6 6F               [ 4]  245 	ld	l, a
    000000F7 36 00            [12]  246 	ld	(hl), #0x00
                                    247 ;src/main.c:67: p_rtc->min     = 0u; // Supported range: 0-59
    000000F9 21 03 00         [12]  248 	ld	hl, #0x0003
    000000FC 09               [ 8]  249 	add	hl, bc
    000000FD E5               [16]  250 	push	hl
    000000FE 7D               [ 4]  251 	ld	a, l
    000000FF F8 06            [12]  252 	ldhl	sp,	#6
    00000101 77               [ 8]  253 	ld	(hl), a
    00000102 E1               [12]  254 	pop	hl
    00000103 7C               [ 4]  255 	ld	a, h
    00000104 F8 05            [12]  256 	ldhl	sp,	#5
    00000106 32               [ 8]  257 	ld	(hl-), a
    00000107 2A               [ 8]  258 	ld	a, (hl+)
    00000108 66               [ 8]  259 	ld	h, (hl)
    00000109 6F               [ 4]  260 	ld	l, a
    0000010A 36 00            [12]  261 	ld	(hl), #0x00
                                    262 ;src/main.c:68: p_rtc->sec     = 0u; // Supported range: 0-59
    0000010C 03               [ 8]  263 	inc	bc
    0000010D 03               [ 8]  264 	inc	bc
    0000010E 03               [ 8]  265 	inc	bc
    0000010F 03               [ 8]  266 	inc	bc
    00000110 AF               [ 4]  267 	xor	a, a
    00000111 02               [ 8]  268 	ld	(bc), a
                                    269 ;src/main.c:70: RTC_SET(RTC_VALUE_DAY,  p_rtc->day);
    00000112 D1               [12]  270 	pop	de
    00000113 D5               [16]  271 	push	de
    00000114 1A               [ 8]  272 	ld	a, (de)
    00000115 6F               [ 4]  273 	ld	l, a
    00000116 13               [ 8]  274 	inc	de
    00000117 1A               [ 8]  275 	ld	a, (de)
    00000118 C5               [16]  276 	push	bc
    00000119 5D               [ 4]  277 	ld	e, l
    0000011A 57               [ 4]  278 	ld	d, a
    0000011B 3E 0B            [ 8]  279 	ld	a, #0x0b
    0000011D CDr00r00         [24]  280 	call	_RTC_SET
    00000120 C1               [12]  281 	pop	bc
                                    282 ;src/main.c:71: RTC_SET(RTC_VALUE_HOUR, p_rtc->hour);
    00000121 F8 06            [12]  283 	ldhl	sp,#6
    00000123 2A               [ 8]  284 	ld	a, (hl+)
    00000124 5F               [ 4]  285 	ld	e, a
    00000125 56               [ 8]  286 	ld	d, (hl)
    00000126 1A               [ 8]  287 	ld	a, (de)
    00000127 16 00            [ 8]  288 	ld	d, #0x00
    00000129 C5               [16]  289 	push	bc
    0000012A 5F               [ 4]  290 	ld	e, a
    0000012B 3E 0A            [ 8]  291 	ld	a, #0x0a
    0000012D CDr00r00         [24]  292 	call	_RTC_SET
    00000130 C1               [12]  293 	pop	bc
                                    294 ;src/main.c:72: RTC_SET(RTC_VALUE_MIN,  p_rtc->min);
    00000131 F8 04            [12]  295 	ldhl	sp,#4
    00000133 2A               [ 8]  296 	ld	a, (hl+)
    00000134 5F               [ 4]  297 	ld	e, a
    00000135 56               [ 8]  298 	ld	d, (hl)
    00000136 1A               [ 8]  299 	ld	a, (de)
    00000137 16 00            [ 8]  300 	ld	d, #0x00
    00000139 C5               [16]  301 	push	bc
    0000013A 5F               [ 4]  302 	ld	e, a
    0000013B 3E 09            [ 8]  303 	ld	a, #0x09
    0000013D CDr00r00         [24]  304 	call	_RTC_SET
    00000140 C1               [12]  305 	pop	bc
                                    306 ;src/main.c:73: RTC_SET(RTC_VALUE_SEC,  p_rtc->sec);
    00000141 0A               [ 8]  307 	ld	a, (bc)
    00000142 16 00            [ 8]  308 	ld	d, #0x00
    00000144 C5               [16]  309 	push	bc
    00000145 5F               [ 4]  310 	ld	e, a
    00000146 3E 08            [ 8]  311 	ld	a, #0x08
    00000148 CDr00r00         [24]  312 	call	_RTC_SET
                                    313 ;src/main.c:75: gotoxy(0,11);
    0000014B 21 00 0B         [12]  314 	ld	hl, #0xb00
    0000014E E5               [16]  315 	push	hl
    0000014F CDr00r00         [24]  316 	call	_gotoxy
    00000152 E1               [12]  317 	pop	hl
                                    318 ;src/main.c:76: printf("Set RTC to:\n");
    00000153 11r94r01         [12]  319 	ld	de, #___str_4
    00000156 CDr00r00         [24]  320 	call	_puts
    00000159 C1               [12]  321 	pop	bc
                                    322 ;src/main.c:82: (uint16_t)p_rtc->sec);
    0000015A 0A               [ 8]  323 	ld	a, (bc)
    0000015B F8 02            [12]  324 	ldhl	sp,	#2
    0000015D 22               [ 8]  325 	ld	(hl+), a
                                    326 ;src/main.c:81: (uint16_t)p_rtc->min,
    0000015E AF               [ 4]  327 	xor	a, a
    0000015F 22               [ 8]  328 	ld	(hl+), a
    00000160 2A               [ 8]  329 	ld	a, (hl+)
    00000161 5F               [ 4]  330 	ld	e, a
    00000162 3A               [ 8]  331 	ld	a, (hl-)
    00000163 57               [ 4]  332 	ld	d, a
    00000164 1A               [ 8]  333 	ld	a, (de)
    00000165 22               [ 8]  334 	ld	(hl+), a
                                    335 ;src/main.c:80: (uint16_t)p_rtc->hour,
    00000166 AF               [ 4]  336 	xor	a, a
    00000167 22               [ 8]  337 	ld	(hl+), a
    00000168 2A               [ 8]  338 	ld	a, (hl+)
    00000169 5F               [ 4]  339 	ld	e, a
    0000016A 3A               [ 8]  340 	ld	a, (hl-)
    0000016B 57               [ 4]  341 	ld	d, a
    0000016C 1A               [ 8]  342 	ld	a, (de)
    0000016D 22               [ 8]  343 	ld	(hl+), a
    0000016E 36 00            [12]  344 	ld	(hl), #0x00
                                    345 ;src/main.c:79: (uint16_t)p_rtc->day,
    00000170 D1               [12]  346 	pop	de
    00000171 D5               [16]  347 	push	de
    00000172 1A               [ 8]  348 	ld	a, (de)
    00000173 4F               [ 4]  349 	ld	c, a
    00000174 13               [ 8]  350 	inc	de
    00000175 1A               [ 8]  351 	ld	a, (de)
    00000176 47               [ 4]  352 	ld	b, a
                                    353 ;src/main.c:78: "Time: %u:%u:%u   \n",
    00000177 F8 02            [12]  354 	ldhl	sp,	#2
    00000179 2A               [ 8]  355 	ld	a, (hl+)
    0000017A 23               [ 8]  356 	inc	hl
    0000017B 5F               [ 4]  357 	ld	e, a
    0000017C 16 00            [ 8]  358 	ld	d, #0x00
    0000017E D5               [16]  359 	push	de
    0000017F 2A               [ 8]  360 	ld	a, (hl+)
    00000180 23               [ 8]  361 	inc	hl
    00000181 5F               [ 4]  362 	ld	e, a
    00000182 16 00            [ 8]  363 	ld	d, #0x00
    00000184 D5               [16]  364 	push	de
    00000185 5E               [ 8]  365 	ld	e, (hl)
    00000186 16 00            [ 8]  366 	ld	d, #0x00
    00000188 D5               [16]  367 	push	de
    00000189 C5               [16]  368 	push	bc
    0000018A 11rA0r01         [12]  369 	ld	de, #___str_5
    0000018D D5               [16]  370 	push	de
    0000018E CDr00r00         [24]  371 	call	_printf
                                    372 ;src/main.c:83: }
    00000191 E8 12            [16]  373 	add	sp, #18
    00000193 C9               [16]  374 	ret
    00000194                        375 ___str_4:
    00000194 53 65 74 20 52 54 43   376 	.ascii "Set RTC to:"
             20 74 6F 3A
    0000019F 00                     377 	.db 0x00
    000001A0                        378 ___str_5:
    000001A0 44 61 79 73 3A 20 25   379 	.ascii "Days: %u  "
             75 20 20
    000001AA 0A                     380 	.db 0x0a
    000001AB 54 69 6D 65 3A 20 25   381 	.ascii "Time: %u:%u:%u   "
             75 3A 25 75 3A 25 75
             20 20 20
    000001BC 0A                     382 	.db 0x0a
    000001BD 00                     383 	.db 0x00
                                    384 ;src/main.c:86: static void clear_rtc_send_message(void) {
                                    385 ;	---------------------------------
                                    386 ; Function clear_rtc_send_message
                                    387 ; ---------------------------------
    000001BE                        388 _clear_rtc_send_message:
                                    389 ;src/main.c:88: gotoxy(0,11);
    000001BE 21 00 0B         [12]  390 	ld	hl, #0xb00
    000001C1 E5               [16]  391 	push	hl
    000001C2 CDr00r00         [24]  392 	call	_gotoxy
    000001C5 E1               [12]  393 	pop	hl
                                    394 ;src/main.c:91: "                  \n");
    000001C6 11rCCr01         [12]  395 	ld	de, #___str_10
                                    396 ;src/main.c:92: }
    000001C9 C3r00r00         [16]  397 	jp	_puts
    000001CC                        398 ___str_10:
    000001CC 20 20 20 20 20 20 20   399 	.ascii "                  "
             20 20 20 20 20 20 20
             20 20 20 20
    000001DE 0A                     400 	.db 0x0a
    000001DF 20 20 20 20 20 20 20   401 	.ascii "                  "
             20 20 20 20 20 20 20
             20 20 20 20
    000001F1 0A                     402 	.db 0x0a
    000001F2 20 20 20 20 20 20 20   403 	.ascii "                  "
             20 20 20 20 20 20 20
             20 20 20 20
    00000204 00                     404 	.db 0x00
                                    405 ;src/main.c:95: void main(void) {
                                    406 ;	---------------------------------
                                    407 ; Function main
                                    408 ; ---------------------------------
    00000205                        409 _main::
    00000205 3B               [ 8]  410 	dec	sp
                                    411 ;src/main.c:98: ENABLE_RAM;
    00000206 21r00r00         [12]  412 	ld	hl, #_rRAMG
    00000209 36 0A            [12]  413 	ld	(hl), #0x0a
                                    414 ;src/main.c:99: RTC_START(true);
    0000020B 3E 01            [ 8]  415 	ld	a, #0x01
    0000020D CDr00r00         [24]  416 	call	_RTC_START
                                    417 ;src/main.c:103: SPRITES_8x8;
    00000210 F0r00            [12]  418 	ldh	a, (_LCDC_REG + 0)
    00000212 E6 FB            [ 8]  419 	and	a, #0xfb
    00000214 E0r00            [12]  420 	ldh	(_LCDC_REG + 0), a
                                    421 ;src/main.c:104: SHOW_SPRITES;
    00000216 F0r00            [12]  422 	ldh	a, (_LCDC_REG + 0)
    00000218 F6 02            [ 8]  423 	or	a, #0x02
    0000021A E0r00            [12]  424 	ldh	(_LCDC_REG + 0), a
                                    425 ;src/main.c:105: SHOW_BKG;
    0000021C F0r00            [12]  426 	ldh	a, (_LCDC_REG + 0)
    0000021E F6 01            [ 8]  427 	or	a, #0x01
    00000220 E0r00            [12]  428 	ldh	(_LCDC_REG + 0), a
                                    429 ;src/main.c:110: "  set new RTC info.\n");
    00000222 11r67r02         [12]  430 	ld	de, #___str_12
    00000225 CDr00r00         [24]  431 	call	_puts
                                    432 ;src/main.c:112: uint8_t clear_notice_count = 0;
    00000228 F8 00            [12]  433 	ldhl	sp,	#0
    0000022A 36 00            [12]  434 	ld	(hl), #0x00
                                    435 ;src/main.c:113: while(1) {
    0000022C                        436 00111$:
                                    437 ;src/main.c:116: vsync();
    0000022C CDr00r00         [24]  438 	call	_vsync
                                    439 ;src/main.c:117: gamepad = joypad();
    0000022F CDr00r00         [24]  440 	call	_joypad
                                    441 ;src/main.c:121: if (gamepad & J_SELECT) {
    00000232 CB 77            [ 8]  442 	bit	6, a
    00000234 28 0F            [12]  443 	jr	Z, 00108$
                                    444 ;src/main.c:122: write_rtc_data(&rtc);
    00000236 11r00r00         [12]  445 	ld	de, #_rtc
    00000239 CDrDAr00         [24]  446 	call	_write_rtc_data
                                    447 ;src/main.c:124: clear_notice_count = 6;
    0000023C F8 00            [12]  448 	ldhl	sp,	#0
    0000023E 36 06            [12]  449 	ld	(hl), #0x06
                                    450 ;src/main.c:127: waitpadup();
    00000240 CDr00r00         [24]  451 	call	_waitpadup
    00000243 18 E7            [12]  452 	jr	00111$
    00000245                        453 00108$:
                                    454 ;src/main.c:131: if ((sys_time & 0x1Fu) == 0u) {
    00000245 FAr00r00         [16]  455 	ld	a, (_sys_time)
    00000248 21r01r00         [12]  456 	ld	hl, #_sys_time + 1
    0000024B 4E               [ 8]  457 	ld	c, (hl)
    0000024C E6 1F            [ 8]  458 	and	a, #0x1f
    0000024E 20 DC            [12]  459 	jr	NZ, 00111$
                                    460 ;src/main.c:132: read_and_show_rtc_data(&rtc);
    00000250 11r00r00         [12]  461 	ld	de, #_rtc
    00000253 CDr00r00         [24]  462 	call	_read_and_show_rtc_data
                                    463 ;src/main.c:134: if (clear_notice_count) {
    00000256 F8 00            [12]  464 	ldhl	sp,	#0
    00000258 7E               [ 8]  465 	ld	a, (hl)
    00000259 B7               [ 4]  466 	or	a, a
    0000025A 28 D0            [12]  467 	jr	Z, 00111$
                                    468 ;src/main.c:135: clear_notice_count--;
    0000025C 35               [12]  469 	dec	(hl)
    0000025D 7E               [ 8]  470 	ld	a, (hl)
    0000025E 20 CC            [12]  471 	jr	NZ, 00111$
                                    472 ;src/main.c:136: if (clear_notice_count == 0) {
                                    473 ;src/main.c:137: clear_rtc_send_message();
    00000260 CDrBEr01         [24]  474 	call	_clear_rtc_send_message
    00000263 18 C7            [12]  475 	jr	00111$
                                    476 ;src/main.c:145: }
    00000265 33               [ 8]  477 	inc	sp
    00000266 C9               [16]  478 	ret
    00000267                        479 ___str_12:
    00000267 52 54 43 20 44 61 74   480 	.ascii "RTC Date/Time Demo"
             65 2F 54 69 6D 65 20
             44 65 6D 6F
    00000279 0A                     481 	.db 0x0a
    0000027A 0A                     482 	.db 0x0a
    0000027B 2A 20 50 72 65 73 73   483 	.ascii "* Press SELECT to "
             20 53 45 4C 45 43 54
             20 74 6F 20
    0000028D 0A                     484 	.db 0x0a
    0000028E 20 20 73 65 74 20 6E   485 	.ascii "  set new RTC info."
             65 77 20 52 54 43 20
             69 6E 66 6F 2E
    000002A1 00                     486 	.db 0x00
                                    487 	.area _CODE
                                    488 	.area _INITIALIZER
                                    489 	.area _CABS (ABS)
