                                      1 ;--------------------------------------------------------
                                      2 ; File Created by SDCC : free open source ISO C Compiler
                                      3 ; Version 4.5.1 #15267 (Mac OS X ppc)
                                      4 ;--------------------------------------------------------
                                      5 	.module main
                                      6 	
                                      7 ;; Ordering of segments for the linker.
                                      8 	.area _ZP      (PAG)
                                      9 	.area _OSEG    (PAG, OVR)
                                     10 	.area _HOME
                                     11 	.area _GSINIT
                                     12 	.area _GSFINAL
                                     13 	.area _CODE
                                     14 	.area _XINIT
                                     15 	.area _DATA
                                     16 	.area _DATA
                                     17 	.area _BSS
                                     18 ;--------------------------------------------------------
                                     19 ; Public variables in this module
                                     20 ;--------------------------------------------------------
                                     21 	.globl _main
                                     22 	.globl _DrawText
                                     23 	.globl _GetCharacterVRamTile
                                     24 	.globl _fill_bkg_rect
                                     25 	.globl _set_bkg_native_data
                                     26 	.globl _get_bkg_xy_addr
                                     27 	.globl _set_vram_byte
                                     28 	.globl _DrawText_PARM_3
                                     29 	.globl _OAMDMA
                                     30 	.globl _PPUDATA
                                     31 	.globl _PPUADDR
                                     32 	.globl _PPUSCROLL
                                     33 	.globl _OAMDATA
                                     34 	.globl _OAMADDR
                                     35 	.globl _PPUSTATUS
                                     36 	.globl _PPUMASK
                                     37 	.globl _PPUCTRL
                                     38 ;--------------------------------------------------------
                                     39 ; ZP ram data
                                     40 ;--------------------------------------------------------
                                     41 	.area _ZP      (PAG)
    00000000                         42 _DrawText_sloc0_1_0:
    00000000                         43 	.ds 2
    00000002                         44 _DrawText_sloc1_1_0:
    00000002                         45 	.ds 2
    00000004                         46 _DrawText_sloc2_1_0:
    00000004                         47 	.ds 2
                                     48 ;--------------------------------------------------------
                                     49 ; overlayable items in ram
                                     50 ;--------------------------------------------------------
                                     51 ;--------------------------------------------------------
                                     52 ; uninitialized external ram data
                                     53 ;--------------------------------------------------------
                                     54 	.area _BSS
                         00002000    55 _PPUCTRL	=	0x2000
                         00002001    56 _PPUMASK	=	0x2001
                         00002002    57 _PPUSTATUS	=	0x2002
                         00002003    58 _OAMADDR	=	0x2003
                         00002004    59 _OAMDATA	=	0x2004
                         00002005    60 _PPUSCROLL	=	0x2005
                         00002006    61 _PPUADDR	=	0x2006
                         00002007    62 _PPUDATA	=	0x2007
                         00004014    63 _OAMDMA	=	0x4014
    00000000                         64 _DrawText_PARM_3:
    00000000                         65 	.ds 2
    00000002                         66 _DrawText_row_10000_134:
    00000002                         67 	.ds 1
                                     68 ;--------------------------------------------------------
                                     69 ; absolute external ram data
                                     70 ;--------------------------------------------------------
                                     71 	.area _DABS    (ABS)
                                     72 ;--------------------------------------------------------
                                     73 ; initialized external ram data
                                     74 ;--------------------------------------------------------
                                     75 	.area _DATA
                                     76 ;--------------------------------------------------------
                                     77 ; global & static initialisations
                                     78 ;--------------------------------------------------------
                                     79 	.area _HOME
                                     80 	.area _GSINIT
                                     81 	.area _GSFINAL
                                     82 	.area _GSINIT
                                     83 ;--------------------------------------------------------
                                     84 ; Home
                                     85 ;--------------------------------------------------------
                                     86 	.area _HOME
                                     87 	.area _HOME
                                     88 ;--------------------------------------------------------
                                     89 ; code
                                     90 ;--------------------------------------------------------
                                     91 	.area _CODE
                                     92 ;------------------------------------------------------------
                                     93 ;Allocation info for local variables in function 'GetCharacterVRamTile'
                                     94 ;------------------------------------------------------------
                                     95 ;character     Allocated to registers y 
                                     96 ;vramTile      Allocated to registers x 
                                     97 ;------------------------------------------------------------
                                     98 ;	src/main.c: 6: uint8_t GetCharacterVRamTile(char character) {
                                     99 ;	genLabel
                                    100 ;	Raw cost for generated ic 0 : (0, 0.000000) count=1.000000
                                    101 ;	-----------------------------------------
                                    102 ;	 function GetCharacterVRamTile
                                    103 ;	-----------------------------------------
                                    104 ;	Register assignment is optimal.
                                    105 ;	Stack space usage: 0 bytes.
    00000000                        106 _GetCharacterVRamTile:
                                    107 ;	Raw cost for generated ic 1 : (0, 0.000000) count=1.000000
                                    108 ;	genReceive
    00000000 A8               [ 2]  109 	tay
                                    110 ;	Raw cost for generated ic 2 : (1, 2.000000) count=1.000000
                                    111 ;	src/main.c: 8: uint8_t vramTile=0;
                                    112 ;	genAssign
                                    113 ;	genAssignLit
                                    114 ;	genCopy
    00000001 A2 00            [ 2]  115 	ldx	#0x00
                                    116 ;	Raw cost for generated ic 3 : (2, 2.000000) count=1.000000
                                    117 ;	src/main.c: 14: if      (character >= 'a' && character <= 'z') vramTile = (character - 'a') + 1;
                                    118 ;	genCmp
    00000003 98               [ 2]  119 	tya
    00000004 38               [ 2]  120 	sec
    00000005 E9 61            [ 2]  121 	sbc	#0x61
    00000007 70 04            [ 4]  122 	bvs	00216$
    00000009 10 04            [ 4]  123 	bpl	00215$
    0000000B 30 19            [ 4]  124 	bmi	00120$
    0000000D                        125 00216$:
    0000000D 10 17            [ 4]  126 	bpl	00120$
    0000000F                        127 00215$:
                                    128 ;	Raw cost for generated ic 4 : (15, 19.400002) count=1.000000
                                    129 ;	skipping generated iCode
                                    130 ;	Raw cost for generated ic 5 : (0, 0.000000) count=1.000000
                                    131 ;	genCmp
    0000000F A9 7A            [ 2]  132 	lda	#0x7a
    00000011 38               [ 2]  133 	sec
    00000012 84*00            [ 3]  134 	sty	*(REGTEMP+0)
    00000014 E5*00            [ 3]  135 	sbc	*(REGTEMP+0)
    00000016 70 04            [ 4]  136 	bvs	00219$
    00000018 10 04            [ 4]  137 	bpl	00218$
    0000001A 30 0A            [ 4]  138 	bmi	00120$
    0000001C                        139 00219$:
    0000001C 10 08            [ 4]  140 	bpl	00120$
    0000001E                        141 00218$:
                                    142 ;	Raw cost for generated ic 8 : (18, 23.400002) count=0.750000
                                    143 ;	skipping generated iCode
                                    144 ;	Raw cost for generated ic 9 : (0, 0.000000) count=0.750000
                                    145 ;	genPlus
                                    146 ;	genPlusIncr
    0000001E 98               [ 2]  147 	tya
    0000001F 18               [ 2]  148 	clc
    00000020 69 A0            [ 2]  149 	adc	#0xa0
    00000022 AA               [ 2]  150 	tax
                                    151 ;	Raw cost for generated ic 12 : (5, 8.000000) count=0.562500
                                    152 ;	genGoto
    00000023 4CrBDr00         [ 3]  153 	jmp	00121$
                                    154 ;	Raw cost for generated ic 14 : (3, 3.000000) count=0.562500
                                    155 ;	genLabel
    00000026                        156 00120$:
                                    157 ;	Raw cost for generated ic 15 : (0, 0.000000) count=0.437500
                                    158 ;	src/main.c: 15: else if (character >= 'A' && character <= 'Z') vramTile = (character - 'A') + 1;
                                    159 ;	genCmp
    00000026 98               [ 2]  160 	tya
    00000027 38               [ 2]  161 	sec
    00000028 E9 41            [ 2]  162 	sbc	#0x41
    0000002A 70 04            [ 4]  163 	bvs	00222$
    0000002C 10 04            [ 4]  164 	bpl	00221$
    0000002E 30 19            [ 4]  165 	bmi	00116$
    00000030                        166 00222$:
    00000030 10 17            [ 4]  167 	bpl	00116$
    00000032                        168 00221$:
                                    169 ;	Raw cost for generated ic 16 : (15, 19.400002) count=0.437500
                                    170 ;	skipping generated iCode
                                    171 ;	Raw cost for generated ic 17 : (0, 0.000000) count=0.437500
                                    172 ;	genCmp
    00000032 A9 5A            [ 2]  173 	lda	#0x5a
    00000034 38               [ 2]  174 	sec
    00000035 84*00            [ 3]  175 	sty	*(REGTEMP+0)
    00000037 E5*00            [ 3]  176 	sbc	*(REGTEMP+0)
    00000039 70 04            [ 4]  177 	bvs	00225$
    0000003B 10 04            [ 4]  178 	bpl	00224$
    0000003D 30 0A            [ 4]  179 	bmi	00116$
    0000003F                        180 00225$:
    0000003F 10 08            [ 4]  181 	bpl	00116$
    00000041                        182 00224$:
                                    183 ;	Raw cost for generated ic 20 : (18, 23.400002) count=0.328125
                                    184 ;	skipping generated iCode
                                    185 ;	Raw cost for generated ic 21 : (0, 0.000000) count=0.328125
                                    186 ;	genPlus
                                    187 ;	genPlusIncr
    00000041 98               [ 2]  188 	tya
    00000042 18               [ 2]  189 	clc
    00000043 69 C0            [ 2]  190 	adc	#0xc0
    00000045 AA               [ 2]  191 	tax
                                    192 ;	Raw cost for generated ic 24 : (5, 8.000000) count=0.246094
                                    193 ;	genGoto
    00000046 4CrBDr00         [ 3]  194 	jmp	00121$
                                    195 ;	Raw cost for generated ic 26 : (3, 3.000000) count=0.246094
                                    196 ;	genLabel
    00000049                        197 00116$:
                                    198 ;	Raw cost for generated ic 27 : (0, 0.000000) count=0.191406
                                    199 ;	src/main.c: 16: else if (character >= '0' && character <= '9') vramTile = (character - '0') + 27;
                                    200 ;	genCmp
    00000049 98               [ 2]  201 	tya
    0000004A 38               [ 2]  202 	sec
    0000004B E9 30            [ 2]  203 	sbc	#0x30
    0000004D 70 04            [ 4]  204 	bvs	00228$
    0000004F 10 04            [ 4]  205 	bpl	00227$
    00000051 30 19            [ 4]  206 	bmi	00112$
    00000053                        207 00228$:
    00000053 10 17            [ 4]  208 	bpl	00112$
    00000055                        209 00227$:
                                    210 ;	Raw cost for generated ic 28 : (15, 19.400002) count=0.191406
                                    211 ;	skipping generated iCode
                                    212 ;	Raw cost for generated ic 29 : (0, 0.000000) count=0.191406
                                    213 ;	genCmp
    00000055 A9 39            [ 2]  214 	lda	#0x39
    00000057 38               [ 2]  215 	sec
    00000058 84*00            [ 3]  216 	sty	*(REGTEMP+0)
    0000005A E5*00            [ 3]  217 	sbc	*(REGTEMP+0)
    0000005C 70 04            [ 4]  218 	bvs	00231$
    0000005E 10 04            [ 4]  219 	bpl	00230$
    00000060 30 0A            [ 4]  220 	bmi	00112$
    00000062                        221 00231$:
    00000062 10 08            [ 4]  222 	bpl	00112$
    00000064                        223 00230$:
                                    224 ;	Raw cost for generated ic 32 : (18, 23.400002) count=0.143555
                                    225 ;	skipping generated iCode
                                    226 ;	Raw cost for generated ic 33 : (0, 0.000000) count=0.143555
                                    227 ;	genPlus
                                    228 ;	genPlusIncr
    00000064 98               [ 2]  229 	tya
    00000065 18               [ 2]  230 	clc
    00000066 69 EB            [ 2]  231 	adc	#0xeb
    00000068 AA               [ 2]  232 	tax
                                    233 ;	Raw cost for generated ic 36 : (5, 8.000000) count=0.107666
                                    234 ;	genGoto
    00000069 4CrBDr00         [ 3]  235 	jmp	00121$
                                    236 ;	Raw cost for generated ic 38 : (3, 3.000000) count=0.107666
                                    237 ;	genLabel
    0000006C                        238 00112$:
                                    239 ;	Raw cost for generated ic 39 : (0, 0.000000) count=0.083740
                                    240 ;	src/main.c: 18: switch(character) {
                                    241 ;	genCmpEQorNE
    0000006C C0 21            [ 2]  242 	cpy	#0x21
    0000006E F0 23            [ 4]  243 	beq	00101$
                                    244 ;	Raw cost for generated ic 40 : (7, 7.600000) count=0.083740
                                    245 ;	skipping generated iCode
                                    246 ;	Raw cost for generated ic 41 : (0, 0.000000) count=0.083740
                                    247 ;	genCmpEQorNE
    00000070 C0 2C            [ 2]  248 	cpy	#0x2c
    00000072 F0 38            [ 4]  249 	beq	00106$
                                    250 ;	Raw cost for generated ic 42 : (7, 7.600000) count=0.062805
                                    251 ;	skipping generated iCode
                                    252 ;	Raw cost for generated ic 43 : (0, 0.000000) count=0.062805
                                    253 ;	genCmpEQorNE
    00000074 C0 2E            [ 2]  254 	cpy	#0x2e
    00000076 F0 39            [ 4]  255 	beq	00107$
                                    256 ;	Raw cost for generated ic 44 : (7, 7.600000) count=0.047104
                                    257 ;	skipping generated iCode
                                    258 ;	Raw cost for generated ic 45 : (0, 0.000000) count=0.047104
                                    259 ;	genCmpEQorNE
    00000078 C0 2F            [ 2]  260 	cpy	#0x2f
    0000007A F0 26            [ 4]  261 	beq	00104$
                                    262 ;	Raw cost for generated ic 46 : (7, 7.600000) count=0.035328
                                    263 ;	skipping generated iCode
                                    264 ;	Raw cost for generated ic 47 : (0, 0.000000) count=0.035328
                                    265 ;	genCmpEQorNE
    0000007C C0 3A            [ 2]  266 	cpy	#0x3a
    0000007E F0 18            [ 4]  267 	beq	00102$
                                    268 ;	Raw cost for generated ic 48 : (7, 7.600000) count=0.026496
                                    269 ;	skipping generated iCode
                                    270 ;	Raw cost for generated ic 49 : (0, 0.000000) count=0.026496
                                    271 ;	genCmpEQorNE
    00000080 C0 3C            [ 2]  272 	cpy	#0x3c
    00000082 F0 32            [ 4]  273 	beq	00108$
                                    274 ;	Raw cost for generated ic 50 : (7, 7.600000) count=0.019872
                                    275 ;	skipping generated iCode
                                    276 ;	Raw cost for generated ic 51 : (0, 0.000000) count=0.019872
                                    277 ;	genCmpEQorNE
    00000084 C0 3D            [ 2]  278 	cpy	#0x3d
    00000086 F0 1F            [ 4]  279 	beq	00105$
                                    280 ;	Raw cost for generated ic 52 : (7, 7.600000) count=0.014904
                                    281 ;	skipping generated iCode
                                    282 ;	Raw cost for generated ic 53 : (0, 0.000000) count=0.014904
                                    283 ;	genCmpEQorNE
    00000088 C0 3E            [ 2]  284 	cpy	#0x3e
    0000008A F0 2F            [ 4]  285 	beq	00109$
                                    286 ;	Raw cost for generated ic 54 : (7, 7.600000) count=0.011178
                                    287 ;	skipping generated iCode
                                    288 ;	Raw cost for generated ic 55 : (0, 0.000000) count=0.011178
                                    289 ;	genCmpEQorNE
    0000008C C0 3F            [ 2]  290 	cpy	#0x3f
    0000008E F0 0D            [ 4]  291 	beq	00103$
                                    292 ;	Raw cost for generated ic 56 : (7, 7.600000) count=0.000000
                                    293 ;	skipping generated iCode
                                    294 ;	Raw cost for generated ic 57 : (0, 0.000000) count=0.000000
                                    295 ;	genGoto
    00000090 4CrBDr00         [ 3]  296 	jmp	00121$
                                    297 ;	Raw cost for generated ic 58 : (3, 3.000000) count=0.000000
                                    298 ;	src/main.c: 19: case '!': vramTile = 37; break;
                                    299 ;	genLabel
    00000093                        300 00101$:
                                    301 ;	Raw cost for generated ic 59 : (0, 0.000000) count=0.020935
                                    302 ;	genAssign
                                    303 ;	genAssignLit
                                    304 ;	genCopy
    00000093 A2 25            [ 2]  305 	ldx	#0x25
                                    306 ;	Raw cost for generated ic 60 : (2, 2.000000) count=0.020935
                                    307 ;	genGoto
    00000095 4CrBDr00         [ 3]  308 	jmp	00121$
                                    309 ;	Raw cost for generated ic 61 : (3, 3.000000) count=0.020935
                                    310 ;	src/main.c: 20: case ':': vramTile = 38; break;
                                    311 ;	genLabel
    00000098                        312 00102$:
                                    313 ;	Raw cost for generated ic 62 : (0, 0.000000) count=0.000000
                                    314 ;	genAssign
                                    315 ;	genAssignLit
                                    316 ;	genCopy
    00000098 A2 26            [ 2]  317 	ldx	#0x26
                                    318 ;	Raw cost for generated ic 63 : (2, 2.000000) count=0.000000
                                    319 ;	genGoto
    0000009A 4CrBDr00         [ 3]  320 	jmp	00121$
                                    321 ;	Raw cost for generated ic 64 : (3, 3.000000) count=0.000000
                                    322 ;	src/main.c: 21: case '?': vramTile = 39; break;
                                    323 ;	genLabel
    0000009D                        324 00103$:
                                    325 ;	Raw cost for generated ic 65 : (0, 0.000000) count=0.000000
                                    326 ;	genAssign
                                    327 ;	genAssignLit
                                    328 ;	genCopy
    0000009D A2 27            [ 2]  329 	ldx	#0x27
                                    330 ;	Raw cost for generated ic 66 : (2, 2.000000) count=0.000000
                                    331 ;	genGoto
    0000009F 4CrBDr00         [ 3]  332 	jmp	00121$
                                    333 ;	Raw cost for generated ic 67 : (3, 3.000000) count=0.000000
                                    334 ;	src/main.c: 22: case '/': vramTile = 40; break;
                                    335 ;	genLabel
    000000A2                        336 00104$:
                                    337 ;	Raw cost for generated ic 68 : (0, 0.000000) count=0.000000
                                    338 ;	genAssign
                                    339 ;	genAssignLit
                                    340 ;	genCopy
    000000A2 A2 28            [ 2]  341 	ldx	#0x28
                                    342 ;	Raw cost for generated ic 69 : (2, 2.000000) count=0.000000
                                    343 ;	genGoto
    000000A4 4CrBDr00         [ 3]  344 	jmp	00121$
                                    345 ;	Raw cost for generated ic 70 : (3, 3.000000) count=0.000000
                                    346 ;	src/main.c: 23: case '=': vramTile = 41; break;
                                    347 ;	genLabel
    000000A7                        348 00105$:
                                    349 ;	Raw cost for generated ic 71 : (0, 0.000000) count=0.011178
                                    350 ;	genAssign
                                    351 ;	genAssignLit
                                    352 ;	genCopy
    000000A7 A2 29            [ 2]  353 	ldx	#0x29
                                    354 ;	Raw cost for generated ic 72 : (2, 2.000000) count=0.011178
                                    355 ;	genGoto
    000000A9 4CrBDr00         [ 3]  356 	jmp	00121$
                                    357 ;	Raw cost for generated ic 73 : (3, 3.000000) count=0.011178
                                    358 ;	src/main.c: 24: case ',': vramTile = 42; break;
                                    359 ;	genLabel
    000000AC                        360 00106$:
                                    361 ;	Raw cost for generated ic 74 : (0, 0.000000) count=0.015701
                                    362 ;	genAssign
                                    363 ;	genAssignLit
                                    364 ;	genCopy
    000000AC A2 2A            [ 2]  365 	ldx	#0x2a
                                    366 ;	Raw cost for generated ic 75 : (2, 2.000000) count=0.015701
                                    367 ;	genGoto
    000000AE 4CrBDr00         [ 3]  368 	jmp	00121$
                                    369 ;	Raw cost for generated ic 76 : (3, 3.000000) count=0.015701
                                    370 ;	src/main.c: 25: case '.': vramTile = 43; break;
                                    371 ;	genLabel
    000000B1                        372 00107$:
                                    373 ;	Raw cost for generated ic 77 : (0, 0.000000) count=0.011776
                                    374 ;	genAssign
                                    375 ;	genAssignLit
                                    376 ;	genCopy
    000000B1 A2 2B            [ 2]  377 	ldx	#0x2b
                                    378 ;	Raw cost for generated ic 78 : (2, 2.000000) count=0.011776
                                    379 ;	genGoto
    000000B3 4CrBDr00         [ 3]  380 	jmp	00121$
                                    381 ;	Raw cost for generated ic 79 : (3, 3.000000) count=0.011776
                                    382 ;	src/main.c: 26: case '<': vramTile = 44; break;
                                    383 ;	genLabel
    000000B6                        384 00108$:
                                    385 ;	Raw cost for generated ic 80 : (0, 0.000000) count=0.014904
                                    386 ;	genAssign
                                    387 ;	genAssignLit
                                    388 ;	genCopy
    000000B6 A2 2C            [ 2]  389 	ldx	#0x2c
                                    390 ;	Raw cost for generated ic 81 : (2, 2.000000) count=0.014904
                                    391 ;	genGoto
    000000B8 4CrBDr00         [ 3]  392 	jmp	00121$
                                    393 ;	Raw cost for generated ic 82 : (3, 3.000000) count=0.014904
                                    394 ;	src/main.c: 27: case '>': vramTile = 45; break;
                                    395 ;	genLabel
    000000BB                        396 00109$:
                                    397 ;	Raw cost for generated ic 83 : (0, 0.000000) count=0.000000
                                    398 ;	genAssign
                                    399 ;	genAssignLit
                                    400 ;	genCopy
    000000BB A2 2D            [ 2]  401 	ldx	#0x2d
                                    402 ;	Raw cost for generated ic 84 : (2, 2.000000) count=0.000000
                                    403 ;	src/main.c: 28: }
                                    404 ;	genLabel
    000000BD                        405 00121$:
                                    406 ;	Raw cost for generated ic 89 : (0, 0.000000) count=0.990754
                                    407 ;	src/main.c: 31: return vramTile;
                                    408 ;	genRet
    000000BD 8A               [ 2]  409 	txa
                                    410 ;	Raw cost for generated ic 90 : (1, 2.000000) count=0.990754
                                    411 ;	genLabel
                                    412 ;	Raw cost for generated ic 91 : (0, 0.000000) count=0.990754
                                    413 ;	src/main.c: 33: }
                                    414 ;	genEndFunction
    000000BE 60               [ 6]  415 	rts
                                    416 ;	Raw cost for generated ic 92 : (1, 6.000000) count=0.990754
                                    417 ;------------------------------------------------------------
                                    418 ;Allocation info for local variables in function 'DrawText'
                                    419 ;------------------------------------------------------------
                                    420 ;sloc0         Allocated with name '_DrawText_sloc0_1_0'
                                    421 ;sloc1         Allocated with name '_DrawText_sloc1_1_0'
                                    422 ;sloc2         Allocated with name '_DrawText_sloc2_1_0'
                                    423 ;text          Allocated with name '_DrawText_PARM_3'
                                    424 ;row           Allocated with name '_DrawText_row_10000_134'
                                    425 ;column        Allocated to registers a 
                                    426 ;vramAddress   Allocated to registers 
                                    427 ;index         Allocated to registers 
                                    428 ;character     Allocated to registers 
                                    429 ;vramTile      Allocated to registers 
                                    430 ;------------------------------------------------------------
                                    431 ;	src/main.c: 35: void DrawText(uint8_t column, uint8_t row, char* text){
                                    432 ;	genLabel
                                    433 ;	Raw cost for generated ic 0 : (0, 0.000000) count=1.000000
                                    434 ;	-----------------------------------------
                                    435 ;	 function DrawText
                                    436 ;	-----------------------------------------
                                    437 ;	Register assignment is optimal.
                                    438 ;	Stack space usage: 0 bytes.
    000000BF                        439 _DrawText:
                                    440 ;	Raw cost for generated ic 1 : (0, 0.000000) count=1.000000
                                    441 ;	genReceive
                                    442 ;	Raw cost for generated ic 2 : (0, 0.000000) count=1.000000
                                    443 ;	genReceive
                                    444 ;	Raw cost for generated ic 3 : (3, 4.000000) count=1.000000
                                    445 ;	src/main.c: 38: uint8_t* vramAddress = get_bkg_xy_addr(column,row);
                                    446 ;	Raw cost for generated ic 4 : (0, 0.000000) count=1.000000
                                    447 ;	Raw cost for generated ic 5 : (0, 0.000000) count=1.000000
                                    448 ;	genCall
                                    449 ;	genSend
    000000BF 8Er02r00         [ 4]  450 	stx	_DrawText_row_10000_134
    000000C2 20r00r00         [ 6]  451 	jsr	_get_bkg_xy_addr
                                    452 ;	assignResultValue
    000000C5 85*00            [ 3]  453 	sta	*_DrawText_sloc0_1_0
    000000C7 86*01            [ 3]  454 	stx	*(_DrawText_sloc0_1_0 + 1)
                                    455 ;	Raw cost for generated ic 6 : (10, 16.000000) count=1.000000
                                    456 ;	src/main.c: 42: while(text[index]!='\0'){
                                    457 ;	genAssign
                                    458 ;	genAssignLit
    000000C9 A2 00            [ 2]  459 	ldx	#0x00
    000000CB 86*02            [ 3]  460 	stx	*_DrawText_sloc1_1_0
    000000CD 86*03            [ 3]  461 	stx	*(_DrawText_sloc1_1_0 + 1)
                                    462 ;	Raw cost for generated ic 38 : (6, 8.000000) count=1.000000
                                    463 ;	genLabel
    000000CF                        464 00101$:
                                    465 ;	Raw cost for generated ic 9 : (0, 0.000000) count=3.999698
                                    466 ;	genPlus
                                    467 ;	genPlusIncr
    000000CF ADr00r00         [ 4]  468 	lda	_DrawText_PARM_3
    000000D2 18               [ 2]  469 	clc
    000000D3 65*02            [ 3]  470 	adc	*_DrawText_sloc1_1_0
    000000D5 85*04            [ 3]  471 	sta	*_DrawText_sloc2_1_0
    000000D7 ADr01r00         [ 4]  472 	lda	(_DrawText_PARM_3 + 1)
    000000DA 65*03            [ 3]  473 	adc	*(_DrawText_sloc1_1_0 + 1)
    000000DC 85*05            [ 3]  474 	sta	*(_DrawText_sloc2_1_0 + 1)
                                    475 ;	Raw cost for generated ic 10 : (15, 22.000000) count=3.999698
                                    476 ;	genPointerGet
    000000DE A0 00            [ 2]  477 	ldy	#0x00
    000000E0 B1*04            [ 6]  478 	lda	[*_DrawText_sloc2_1_0],y
                                    479 ;	Raw cost for generated ic 11 : (4, 7.000000) count=3.999698
                                    480 ;	genIfx
                                    481 ;	genIfxJump : z
    000000E2 F0 1C            [ 4]  482 	beq	00104$
                                    483 ;	Raw cost for generated ic 12 : (5, 5.600000) count=3.999698
                                    484 ;	src/main.c: 48: uint8_t vramTile = GetCharacterVRamTile(character);
                                    485 ;	Raw cost for generated ic 18 : (0, 0.000000) count=2.999698
                                    486 ;	genCall
                                    487 ;	genSend
    000000E4 20r00r00         [ 6]  488 	jsr	_GetCharacterVRamTile
                                    489 ;	assignResultValue
    000000E7 8Dr00r00         [ 4]  490 	sta	_set_vram_byte_PARM_2
                                    491 ;	Raw cost for generated ic 19 : (6, 10.000000) count=2.999698
                                    492 ;	src/main.c: 50: set_vram_byte(vramAddress++,vramTile);
                                    493 ;	genAssign
                                    494 ;	genAssignLit
                                    495 ;	genCopy
    000000EA A6*01            [ 3]  496 	ldx	*(_DrawText_sloc0_1_0 + 1)
    000000EC A5*00            [ 3]  497 	lda	*_DrawText_sloc0_1_0
                                    498 ;	Raw cost for generated ic 21 : (4, 6.000000) count=2.999698
                                    499 ;	genPlus
                                    500 ;	genPlusIncr
    000000EE E6*00            [ 5]  501 	inc	*_DrawText_sloc0_1_0
    000000F0 D0 02            [ 4]  502 	bne	00121$
    000000F2 E6*01            [ 5]  503 	inc	*(_DrawText_sloc0_1_0 + 1)
    000000F4                        504 00121$:
                                    505 ;	Raw cost for generated ic 22 : (6, 12.600000) count=2.999698
                                    506 ;	Raw cost for generated ic 24 : (0, 0.000000) count=2.999698
                                    507 ;	genCall
                                    508 ;	genSend
    000000F4 20r00r00         [ 6]  509 	jsr	_set_vram_byte
                                    510 ;	Raw cost for generated ic 26 : (3, 6.000000) count=2.999698
                                    511 ;	src/main.c: 56: index++;
                                    512 ;	genPlus
                                    513 ;	genPlusIncr
    000000F7 E6*02            [ 5]  514 	inc	*_DrawText_sloc1_1_0
    000000F9 D0 D4            [ 4]  515 	bne	00101$
    000000FB E6*03            [ 5]  516 	inc	*(_DrawText_sloc1_1_0 + 1)
                                    517 ;	Raw cost for generated ic 28 : (6, 12.600000) count=2.999698
                                    518 ;	genGoto
    000000FD 4CrCFr00         [ 3]  519 	jmp	00101$
                                    520 ;	Raw cost for generated ic 30 : (3, 3.000000) count=2.999698
                                    521 ;	genLabel
    00000100                        522 00104$:
                                    523 ;	Raw cost for generated ic 32 : (0, 0.000000) count=0.999925
                                    524 ;	src/main.c: 59: }
                                    525 ;	genEndFunction
    00000100 60               [ 6]  526 	rts
                                    527 ;	Raw cost for generated ic 33 : (1, 6.000000) count=0.999925
                                    528 ;------------------------------------------------------------
                                    529 ;Allocation info for local variables in function 'main'
                                    530 ;------------------------------------------------------------
                                    531 ;__200000009   Allocated to registers 
                                    532 ;__200000010   Allocated to registers 
                                    533 ;__200000011   Allocated to registers 
                                    534 ;first_tile    Allocated to registers 
                                    535 ;nb_tiles      Allocated to registers 
                                    536 ;data          Allocated to registers 
                                    537 ;------------------------------------------------------------
                                    538 ;	src/main.c: 61: void main(void)
                                    539 ;	genLabel
                                    540 ;	Raw cost for generated ic 0 : (0, 0.000000) count=1.000000
                                    541 ;	-----------------------------------------
                                    542 ;	 function main
                                    543 ;	-----------------------------------------
                                    544 ;	Register assignment is optimal.
                                    545 ;	Stack space usage: 0 bytes.
    00000101                        546 _main:
                                    547 ;	Raw cost for generated ic 1 : (0, 0.000000) count=1.000000
                                    548 ;	src/main.c: 63: SHOW_BKG;
                                    549 ;	genOr
    00000101 ADr00r00         [ 4]  550 	lda	_shadow_PPUMASK
    00000104 09 08            [ 2]  551 	ora	#0x08
    00000106 8Dr00r00         [ 4]  552 	sta	_shadow_PPUMASK
                                    553 ;	Raw cost for generated ic 2 : (8, 10.000000) count=1.000000
                                    554 ;	src/main.c: 65: set_native_tile_data(0,Font_TILE_COUNT,Font_tiles);
                                    555 ;	skipping iCode since result will be rematerialized
                                    556 ;	Raw cost for generated ic 4 : (0, 0.000000) count=1.000000
                                    557 ;	genCast
                                    558 ;	genCopy
    00000109 A9s00            [ 2]  559 	lda	#>_Font_tiles
    0000010B 8Dr01r00         [ 4]  560 	sta	(_set_bkg_native_data_PARM_3 + 1)
    0000010E A9r00            [ 2]  561 	lda	#_Font_tiles
    00000110 8Dr00r00         [ 4]  562 	sta	_set_bkg_native_data_PARM_3
                                    563 ;	Raw cost for generated ic 5 : (10, 12.000000) count=1.000000
                                    564 ;	../../../include/nes/nes.h: 1277: set_bkg_native_data(first_tile, nb_tiles, data);
                                    565 ;	Raw cost for generated ic 18 : (0, 0.000000) count=1.000000
                                    566 ;	Raw cost for generated ic 19 : (0, 0.000000) count=1.000000
                                    567 ;	genCall
                                    568 ;	genSend
    00000113 A9 00            [ 2]  569 	lda	#0x00
    00000115 A2 2E            [ 2]  570 	ldx	#0x2e
    00000117 20r00r00         [ 6]  571 	jsr	_set_bkg_native_data
                                    572 ;	Raw cost for generated ic 21 : (7, 10.000000) count=1.000000
                                    573 ;	src/main.c: 67: fill_bkg_rect(0,0,DEVICE_SCREEN_WIDTH,DEVICE_SCREEN_HEIGHT,0);
                                    574 ;	genAssign
                                    575 ;	genAssignLit
    0000011A A2 20            [ 2]  576 	ldx	#0x20
    0000011C 8Er00r00         [ 4]  577 	stx	_fill_bkg_rect_PARM_3
                                    578 ;	Raw cost for generated ic 51 : (5, 6.000000) count=1.000000
                                    579 ;	genAssign
                                    580 ;	genAssignLit
    0000011F A2 1E            [ 2]  581 	ldx	#0x1e
    00000121 8Er00r00         [ 4]  582 	stx	_fill_bkg_rect_PARM_4
                                    583 ;	Raw cost for generated ic 52 : (5, 6.000000) count=1.000000
                                    584 ;	genAssign
                                    585 ;	genAssignLit
    00000124 A2 00            [ 2]  586 	ldx	#0x00
    00000126 8Er00r00         [ 4]  587 	stx	_fill_bkg_rect_PARM_5
                                    588 ;	Raw cost for generated ic 53 : (5, 6.000000) count=1.000000
                                    589 ;	Raw cost for generated ic 49 : (0, 0.000000) count=1.000000
                                    590 ;	Raw cost for generated ic 50 : (0, 0.000000) count=1.000000
                                    591 ;	genCall
                                    592 ;	genSend
    00000129 8A               [ 2]  593 	txa
    0000012A 20r00r00         [ 6]  594 	jsr	_fill_bkg_rect
                                    595 ;	Raw cost for generated ic 54 : (4, 8.000000) count=1.000000
                                    596 ;	src/main.c: 70: DrawText(1,1,"GBDK Text Example");
                                    597 ;	skipping iCode since result will be rematerialized
                                    598 ;	Raw cost for generated ic 55 : (0, 0.000000) count=1.000000
                                    599 ;	genCast
                                    600 ;	genCopy
    0000012D A9s01            [ 2]  601 	lda	#>___str_0
    0000012F 8Dr01r00         [ 4]  602 	sta	(_DrawText_PARM_3 + 1)
    00000132 A9r3D            [ 2]  603 	lda	#___str_0
    00000134 8Dr00r00         [ 4]  604 	sta	_DrawText_PARM_3
                                    605 ;	Raw cost for generated ic 56 : (10, 12.000000) count=1.000000
                                    606 ;	Raw cost for generated ic 57 : (0, 0.000000) count=1.000000
                                    607 ;	Raw cost for generated ic 58 : (0, 0.000000) count=1.000000
                                    608 ;	genCall
                                    609 ;	genSend
    00000137 A9 01            [ 2]  610 	lda	#0x01
    00000139 AA               [ 2]  611 	tax
                                    612 ;	Raw cost for generated ic 60 : (6, 10.000000) count=1.000000
                                    613 ;	genLabel
                                    614 ;	Raw cost for generated ic 61 : (0, 0.000000) count=1.000000
                                    615 ;	src/main.c: 71: }
                                    616 ;	genEndFunction
    0000013A 4CrBFr00         [ 3]  617 	jmp	_DrawText
                                    618 ;	Raw cost for generated ic 62 : (1, 6.000000) count=1.000000
                                    619 	.area _CODE
    0000013D                        620 ___str_0:
    0000013D 47 42 44 4B 20 54 65   621 	.ascii "GBDK Text Example"
             78 74 20 45 78 61 6D
             70 6C 65
    0000014E 00                     622 	.db 0x00
                                    623 	.area _XINIT
                                    624 	.area _CABS    (ABS)
