;--------------------------------------------------------
; File Created by SDCC : free open source ISO C Compiler
; Version 4.5.1 #15267 (Mac OS X ppc)
;--------------------------------------------------------
	.module multiplayer
	
;--------------------------------------------------------
; Public variables in this module
;--------------------------------------------------------
	.globl _main
	.globl _set_sprite_data
	.globl _vsync
	.globl _joypad_ex
	.globl _joypad_init
	.globl _joypads
	.globl _sprite_data
;--------------------------------------------------------
; special function registers
;--------------------------------------------------------
;--------------------------------------------------------
; ram data
;--------------------------------------------------------
	.area _DATA
_joypads::
	.ds 5
;--------------------------------------------------------
; ram data
;--------------------------------------------------------
	.area _INITIALIZED
;--------------------------------------------------------
; absolute external ram data
;--------------------------------------------------------
	.area _DABS (ABS)
;--------------------------------------------------------
; global & static initialisations
;--------------------------------------------------------
	.area _HOME
	.area _GSINIT
	.area _GSFINAL
	.area _GSINIT
;--------------------------------------------------------
; Home
;--------------------------------------------------------
	.area _HOME
	.area _HOME
;--------------------------------------------------------
; code
;--------------------------------------------------------
	.area _CODE
;src/multiplayer.c:14: void main(void) {
;	---------------------------------
; Function main
; ---------------------------------
_main::
;src/multiplayer.c:15: set_sprite_data(0, 4, sprite_data);
	ld	de, #_sprite_data
	push	de
	ld	hl, #0x400
	push	hl
	call	_set_sprite_data
	add	sp, #4
;src/multiplayer.c:16: for (uint8_t i = 0; i < 4; i++) {
	ld	c, #0x00
00126$:
	ld	a, c
	sub	a, #0x04
	jr	NC, 00101$
;../../../include/gb/gb.h:1887: shadow_OAM[nb].tile=tile;
	ld	l, c
	ld	h, #0x00
	add	hl, hl
	add	hl, hl
	ld	e, l
	ld	d, h
	ld	hl,#_shadow_OAM + 1
	add	hl,de
	inc	hl
	ld	(hl), c
;src/multiplayer.c:19: DEVICE_SPRITE_PX_OFFSET_X + (i << 3) + ((DEVICE_SCREEN_PX_WIDTH - (4 * 8)) / 2), 
	ld	a, c
	add	a, a
	add	a, a
	add	a, a
	add	a, #0x48
	ld	b, a
;../../../include/gb/gb.h:1973: OAM_item_t * itm = &shadow_OAM[nb];
	ld	hl, #_shadow_OAM
	add	hl, de
;../../../include/gb/gb.h:1974: itm->y=y, itm->x=x;
	ld	a, #0x54
	ld	(hl+), a
	ld	(hl), b
;src/multiplayer.c:16: for (uint8_t i = 0; i < 4; i++) {
	inc	c
	jr	00126$
00101$:
;src/multiplayer.c:22: SHOW_SPRITES;
	ldh	a, (_LCDC_REG + 0)
	or	a, #0x02
	ldh	(_LCDC_REG + 0), a
;src/multiplayer.c:26: for (uint8_t i = 4; i != 0; i--) vsync();
	ld	c, #0x04
00129$:
	ld	a, c
	or	a, a
	jr	Z, 00102$
	call	_vsync
	dec	c
	jr	00129$
00102$:
;src/multiplayer.c:29: joypad_init(4, &joypads);
	ld	de, #_joypads
	push	de
	ld	a, #0x04
	push	af
	inc	sp
	call	_joypad_init
	add	sp, #3
;src/multiplayer.c:31: while(1) {
00116$:
;src/multiplayer.c:33: joypad_ex(&joypads);
	ld	de, #_joypads
	call	_joypad_ex
;src/multiplayer.c:35: for (uint8_t i = 0; i < joypads.npads; i++) {
	ld	c, #0x00
00132$:
	ld	hl, #_joypads
	ld	a, c
	sub	a, (hl)
	jr	NC, 00111$
;src/multiplayer.c:36: uint8_t joy = joypads.joypads[i];
	ld	hl, #(_joypads + 1)
	ld	b, #0x00
	add	hl, bc
	ld	b, (hl)
;src/multiplayer.c:37: if (joy & J_LEFT) scroll_sprite(i, -1, 0);
	bit	1, b
	jr	Z, 00104$
;../../../include/gb/gb.h:1989: OAM_item_t * itm = &shadow_OAM[nb];
	ld	de, #_shadow_OAM+0
	ld	l, c
	xor	a, a
	ld	h, a
	add	hl, hl
	add	hl, hl
	add	hl, de
;../../../include/gb/gb.h:1990: itm->y+=y, itm->x+=x;
	ld	e, l
	ld	d, h
	inc	hl
	ld	a, (de)
	ld	(de), a
	dec	(hl)
	ld	a, (hl)
;src/multiplayer.c:37: if (joy & J_LEFT) scroll_sprite(i, -1, 0);
00104$:
;src/multiplayer.c:38: if (joy & J_RIGHT) scroll_sprite(i, 1, 0);
	bit	0, b
	jr	Z, 00106$
;../../../include/gb/gb.h:1989: OAM_item_t * itm = &shadow_OAM[nb];
	ld	de, #_shadow_OAM+0
	ld	l, c
	xor	a, a
	ld	h, a
	add	hl, hl
	add	hl, hl
	add	hl, de
;../../../include/gb/gb.h:1990: itm->y+=y, itm->x+=x;
	ld	e, l
	ld	d, h
	inc	hl
	ld	a, (de)
	ld	(de), a
	inc	(hl)
	ld	a, (hl)
;src/multiplayer.c:38: if (joy & J_RIGHT) scroll_sprite(i, 1, 0);
00106$:
;src/multiplayer.c:39: if (joy & J_UP) scroll_sprite(i, 0, -1);
	bit	2, b
	jr	Z, 00108$
;../../../include/gb/gb.h:1989: OAM_item_t * itm = &shadow_OAM[nb];
	ld	de, #_shadow_OAM+0
	ld	l, c
	xor	a, a
	ld	h, a
	add	hl, hl
	add	hl, hl
	add	hl, de
;../../../include/gb/gb.h:1990: itm->y+=y, itm->x+=x;
	ld	e, l
	ld	d, h
	inc	hl
	ld	a, (de)
	dec	a
	ld	(de), a
	ld	a, (hl)
	ld	(hl), a
;src/multiplayer.c:39: if (joy & J_UP) scroll_sprite(i, 0, -1);
00108$:
;src/multiplayer.c:40: if (joy & J_DOWN) scroll_sprite(i, 0, 1);
	bit	3, b
	jr	Z, 00133$
;../../../include/gb/gb.h:1989: OAM_item_t * itm = &shadow_OAM[nb];
	ld	de, #_shadow_OAM+0
	ld	l, c
	xor	a, a
	ld	h, a
	add	hl, hl
	add	hl, hl
	add	hl, de
;../../../include/gb/gb.h:1990: itm->y+=y, itm->x+=x;
	ld	e, l
	ld	d, h
	inc	hl
	ld	a, (de)
	inc	a
	ld	(de), a
	ld	a, (hl)
	ld	(hl), a
;src/multiplayer.c:40: if (joy & J_DOWN) scroll_sprite(i, 0, 1);
00133$:
;src/multiplayer.c:35: for (uint8_t i = 0; i < joypads.npads; i++) {
	inc	c
	jr	00132$
00111$:
;src/multiplayer.c:43: if (joypads.joy0 & J_START) {
	ld	a, (#(_joypads + 1) + 0)
	rlca
	jr	NC, 00114$
;src/multiplayer.c:44: for (uint8_t i = 0; i < 4; i++) move_sprite(i, (i << 3) + 64, 64);
	ld	c, #0x00
00135$:
	ld	a,c
	cp	a,#0x04
	jr	NC, 00114$
	add	a, a
	add	a, a
	add	a, a
	add	a, #0x40
	ld	b, a
;../../../include/gb/gb.h:1973: OAM_item_t * itm = &shadow_OAM[nb];
	ld	de, #_shadow_OAM+0
	ld	l, c
	ld	h, #0x00
	add	hl, hl
	add	hl, hl
	add	hl, de
;../../../include/gb/gb.h:1974: itm->y=y, itm->x=x;
	ld	a, #0x40
	ld	(hl+), a
	ld	(hl), b
;src/multiplayer.c:44: for (uint8_t i = 0; i < 4; i++) move_sprite(i, (i << 3) + 64, 64);
	inc	c
	jr	00135$
00114$:
;src/multiplayer.c:46: vsync();
	call	_vsync
;src/multiplayer.c:48: }
	jp	00116$
_sprite_data:
	.db #0x3c	; 60
	.db #0x3c	; 60
	.db #0x42	; 66	'B'
	.db #0x7e	; 126
	.db #0x99	; 153
	.db #0xff	; 255
	.db #0xa9	; 169
	.db #0xff	; 255
	.db #0x89	; 137
	.db #0xff	; 255
	.db #0x89	; 137
	.db #0xff	; 255
	.db #0x42	; 66	'B'
	.db #0x7e	; 126
	.db #0x3c	; 60
	.db #0x3c	; 60
	.db #0x3c	; 60
	.db #0x3c	; 60
	.db #0x42	; 66	'B'
	.db #0x7e	; 126
	.db #0xb9	; 185
	.db #0xff	; 255
	.db #0x89	; 137
	.db #0xff	; 255
	.db #0x91	; 145
	.db #0xff	; 255
	.db #0xb9	; 185
	.db #0xff	; 255
	.db #0x42	; 66	'B'
	.db #0x7e	; 126
	.db #0x3c	; 60
	.db #0x3c	; 60
	.db #0x3c	; 60
	.db #0x3c	; 60
	.db #0x42	; 66	'B'
	.db #0x7e	; 126
	.db #0x99	; 153
	.db #0xff	; 255
	.db #0x89	; 137
	.db #0xff	; 255
	.db #0x99	; 153
	.db #0xff	; 255
	.db #0x89	; 137
	.db #0xff	; 255
	.db #0x5a	; 90	'Z'
	.db #0x7e	; 126
	.db #0x3c	; 60
	.db #0x3c	; 60
	.db #0x3c	; 60
	.db #0x3c	; 60
	.db #0x42	; 66	'B'
	.db #0x7e	; 126
	.db #0xa9	; 169
	.db #0xff	; 255
	.db #0xa9	; 169
	.db #0xff	; 255
	.db #0xb9	; 185
	.db #0xff	; 255
	.db #0x89	; 137
	.db #0xff	; 255
	.db #0x42	; 66	'B'
	.db #0x7e	; 126
	.db #0x3c	; 60
	.db #0x3c	; 60
	.area _CODE
	.area _INITIALIZER
	.area _CABS (ABS)
