;--------------------------------------------------------
; File Created by SDCC : free open source ISO C Compiler
; Version 4.5.1 #15267 (Mac OS X ppc)
;--------------------------------------------------------
	.module main
	
;--------------------------------------------------------
; Public variables in this module
;--------------------------------------------------------
	.globl _hUGE_dosound
	.globl _hUGE_init
	.globl _drawTextCentered
	.globl _updateFrameCounter
	.globl _setupGorb
	.globl _updateGorb
	.globl _hide_sprites_range
	.globl _set_sprite_palette
	.globl _set_bkg_palette
	.globl _set_bkg_tiles
	.globl _set_bkg_data
	.globl _wait_vbl_done
	.globl _joypad
	.globl _add_VBL
	.globl _gorbytheme
	.globl _main
	.globl _setupBackground
;--------------------------------------------------------
; special function registers
;--------------------------------------------------------
;--------------------------------------------------------
; ram data
;--------------------------------------------------------
	.area _DATA
;--------------------------------------------------------
; ram data
;--------------------------------------------------------
	.area _INITIALIZED
;--------------------------------------------------------
; absolute external ram data
;--------------------------------------------------------
	.area _DABS (ABS)
;--------------------------------------------------------
; global & static initialisations
;--------------------------------------------------------
	.area _HOME
	.area _GSINIT
	.area _GSFINAL
	.area _GSINIT
;--------------------------------------------------------
; Home
;--------------------------------------------------------
	.area _HOME
	.area _HOME
;--------------------------------------------------------
; code
;--------------------------------------------------------
	.area _CODE
;src/main.c:19: void main(void)
;	---------------------------------
; Function main
; ---------------------------------
_main::
;src/main.c:21: NR52_REG = 0x80; // Master sound on
	ld	a, #0x80
	ldh	(_NR52_REG + 0), a
;src/main.c:22: NR50_REG = 0xFF; // Maximum volume for left/right speakers.
	ld	a, #0xff
	ldh	(_NR50_REG + 0), a
;src/main.c:23: NR51_REG = 0xFF; // Turn on sound fully
	ld	a, #0xff
	ldh	(_NR51_REG + 0), a
;src/main.c:30: }
	di
;src/main.c:28: hUGE_init(&gorbytheme);
	ld	de, #_gorbytheme
	call	_hUGE_init
;src/main.c:29: add_VBL(hUGE_dosound);
	ld	de, #_hUGE_dosound
	call	_add_VBL
	ei
;src/main.c:32: DISPLAY_ON;
	ldh	a, (_LCDC_REG + 0)
	or	a, #0x80
	ldh	(_LCDC_REG + 0), a
;src/main.c:33: SHOW_BKG; // HIDE_BKG;
	ldh	a, (_LCDC_REG + 0)
	or	a, #0x01
	ldh	(_LCDC_REG + 0), a
;src/main.c:34: SHOW_SPRITES;
	ldh	a, (_LCDC_REG + 0)
	or	a, #0x02
	ldh	(_LCDC_REG + 0), a
;src/main.c:35: SPRITES_8x16;
	ldh	a, (_LCDC_REG + 0)
	or	a, #0x04
	ldh	(_LCDC_REG + 0), a
;src/main.c:37: setupBackground();
	call	_setupBackground
;src/main.c:39: set_sprite_palette(0, WalkingGorb_PALETTE_COUNT, WalkingGorb_palettes);
	ld	de, #_WalkingGorb_palettes
	push	de
	xor	a, a
	inc	a
	push	af
	call	_set_sprite_palette
	add	sp, #4
;src/main.c:41: setupGorb();
	call	_setupGorb
;src/main.c:44: set_native_tile_data(splashscreen3_TILE_COUNT, Font_TILE_COUNT, Font_tiles);
;../gbdk/include/gb/gb.h:2146: set_bkg_data(first_tile, nb_tiles, data);
	ld	de, #_Font_tiles
	push	de
	ld	hl, #0x2eb3
	push	hl
	call	_set_bkg_data
	add	sp, #4
;src/main.c:47: drawTextCentered(15, ">Press Start");
	ld	de, #___str_0
	ld	a, #0x0f
	call	_drawTextCentered
;src/main.c:49: while (1)
00102$:
;src/main.c:53: joypadCurrent = joypad();
	call	_joypad
	ld	(#_joypadCurrent),a
;src/main.c:55: updateFrameCounter();
	call	_updateFrameCounter
;src/main.c:59: lastSprite += updateGorb();
	call	_updateGorb
;src/main.c:66: hide_sprites_range(lastSprite, 40);
	ld	e, #0x28
	call	_hide_sprites_range
;src/main.c:69: wait_vbl_done();
	call	_wait_vbl_done
;src/main.c:71: }
	jr	00102$
_order_cnt:
	.db #0x0e	; 14
_P0:
	.db #0x20	; 32
	.db #0x10	; 16
	.db #0x00	; 0
	.db #0x5a	; 90	'Z'
	.db #0x00	; 0
	.db #0x00	; 0
	.db #0x1e	; 30
	.db #0x10	; 16
	.db #0x00	; 0
	.db #0x5a	; 90	'Z'
	.db #0x00	; 0
	.db #0x00	; 0
	.db #0x1b	; 27
	.db #0x10	; 16
	.db #0x00	; 0
	.db #0x5a	; 90	'Z'
	.db #0x00	; 0
	.db #0x00	; 0
	.db #0x1c	; 28
	.db #0x10	; 16
	.db #0x00	; 0
	.db #0x5a	; 90	'Z'
	.db #0x00	; 0
	.db #0x00	; 0
	.db #0x1b	; 27
	.db #0x10	; 16
	.db #0x00	; 0
	.db #0x5a	; 90	'Z'
	.db #0x00	; 0
	.db #0x00	; 0
	.db #0x5a	; 90	'Z'
	.db #0x00	; 0
	.db #0x00	; 0
	.db #0x5a	; 90	'Z'
	.db #0x00	; 0
	.db #0x00	; 0
	.db #0x5a	; 90	'Z'
	.db #0x00	; 0
	.db #0x00	; 0
	.db #0x5a	; 90	'Z'
	.db #0x00	; 0
	.db #0x00	; 0
	.db #0x5a	; 90	'Z'
	.db #0x00	; 0
	.db #0x00	; 0
	.db #0x5a	; 90	'Z'
	.db #0x00	; 0
	.db #0x00	; 0
	.db #0x5a	; 90	'Z'
	.db #0x00	; 0
	.db #0x00	; 0
	.db #0x5a	; 90	'Z'
	.db #0x00	; 0
	.db #0x00	; 0
	.db #0x16	; 22
	.db #0x10	; 16
	.db #0x00	; 0
	.db #0x5a	; 90	'Z'
	.db #0x00	; 0
	.db #0x00	; 0
	.db #0x17	; 23
	.db #0x10	; 16
	.db #0x00	; 0
	.db #0x5a	; 90	'Z'
	.db #0x00	; 0
	.db #0x00	; 0
	.db #0x13	; 19
	.db #0x10	; 16
	.db #0x00	; 0
	.db #0x5a	; 90	'Z'
	.db #0x00	; 0
	.db #0x00	; 0
	.db #0x14	; 20
	.db #0x10	; 16
	.db #0x00	; 0
	.db #0x5a	; 90	'Z'
	.db #0x00	; 0
	.db #0x00	; 0
	.db #0x5a	; 90	'Z'
	.db #0x00	; 0
	.db #0x00	; 0
	.db #0x5a	; 90	'Z'
	.db #0x00	; 0
	.db #0x00	; 0
	.db #0x5a	; 90	'Z'
	.db #0x00	; 0
	.db #0x00	; 0
	.db #0x5a	; 90	'Z'
	.db #0x00	; 0
	.db #0x00	; 0
	.db #0x5a	; 90	'Z'
	.db #0x00	; 0
	.db #0x00	; 0
	.db #0x5a	; 90	'Z'
	.db #0x00	; 0
	.db #0x00	; 0
	.db #0x5a	; 90	'Z'
	.db #0x00	; 0
	.db #0x00	; 0
	.db #0x5a	; 90	'Z'
	.db #0x00	; 0
	.db #0x00	; 0
	.db #0x16	; 22
	.db #0x10	; 16
	.db #0x00	; 0
	.db #0x5a	; 90	'Z'
	.db #0x00	; 0
	.db #0x00	; 0
	.db #0x17	; 23
	.db #0x10	; 16
	.db #0x00	; 0
	.db #0x5a	; 90	'Z'
	.db #0x00	; 0
	.db #0x00	; 0
	.db #0x0f	; 15
	.db #0x10	; 16
	.db #0x00	; 0
	.db #0x5a	; 90	'Z'
	.db #0x00	; 0
	.db #0x00	; 0
	.db #0x1b	; 27
	.db #0x10	; 16
	.db #0x00	; 0
	.db #0x5a	; 90	'Z'
	.db #0x00	; 0
	.db #0x00	; 0
	.db #0x5a	; 90	'Z'
	.db #0x00	; 0
	.db #0x00	; 0
	.db #0x5a	; 90	'Z'
	.db #0x00	; 0
	.db #0x00	; 0
	.db #0x5a	; 90	'Z'
	.db #0x00	; 0
	.db #0x00	; 0
	.db #0x5a	; 90	'Z'
	.db #0x00	; 0
	.db #0x00	; 0
	.db #0x5a	; 90	'Z'
	.db #0x00	; 0
	.db #0x00	; 0
	.db #0x5a	; 90	'Z'
	.db #0x00	; 0
	.db #0x00	; 0
	.db #0x5a	; 90	'Z'
	.db #0x00	; 0
	.db #0x00	; 0
	.db #0x5a	; 90	'Z'
	.db #0x00	; 0
	.db #0x00	; 0
	.db #0x16	; 22
	.db #0x10	; 16
	.db #0x00	; 0
	.db #0x5a	; 90	'Z'
	.db #0x00	; 0
	.db #0x00	; 0
	.db #0x17	; 23
	.db #0x10	; 16
	.db #0x00	; 0
	.db #0x5a	; 90	'Z'
	.db #0x00	; 0
	.db #0x00	; 0
	.db #0x13	; 19
	.db #0x10	; 16
	.db #0x00	; 0
	.db #0x5a	; 90	'Z'
	.db #0x00	; 0
	.db #0x00	; 0
	.db #0x14	; 20
	.db #0x10	; 16
	.db #0x00	; 0
	.db #0x5a	; 90	'Z'
	.db #0x00	; 0
	.db #0x00	; 0
	.db #0x5a	; 90	'Z'
	.db #0x00	; 0
	.db #0x00	; 0
	.db #0x5a	; 90	'Z'
	.db #0x00	; 0
	.db #0x00	; 0
	.db #0x5a	; 90	'Z'
	.db #0x00	; 0
	.db #0x00	; 0
	.db #0x5a	; 90	'Z'
	.db #0x00	; 0
	.db #0x00	; 0
	.db #0x5a	; 90	'Z'
	.db #0x00	; 0
	.db #0x00	; 0
	.db #0x5a	; 90	'Z'
	.db #0x00	; 0
	.db #0x00	; 0
_P1:
	.db #0x23	; 35
	.db #0x10	; 16
	.db #0x00	; 0
	.db #0x5a	; 90	'Z'
	.db #0x00	; 0
	.db #0x00	; 0
	.db #0x22	; 34
	.db #0x10	; 16
	.db #0x00	; 0
	.db #0x5a	; 90	'Z'
	.db #0x00	; 0
	.db #0x00	; 0
	.db #0x12	; 18
	.db #0x10	; 16
	.db #0x00	; 0
	.db #0x5a	; 90	'Z'
	.db #0x00	; 0
	.db #0x00	; 0
	.db #0x14	; 20
	.db #0x10	; 16
	.db #0x00	; 0
	.db #0x5a	; 90	'Z'
	.db #0x00	; 0
	.db #0x00	; 0
	.db #0x0b	; 11
	.db #0x10	; 16
	.db #0x00	; 0
	.db #0x5a	; 90	'Z'
	.db #0x00	; 0
	.db #0x00	; 0
	.db #0x27	; 39
	.db #0x10	; 16
	.db #0x00	; 0
	.db #0x5a	; 90	'Z'
	.db #0x00	; 0
	.db #0x00	; 0
	.db #0x23	; 35
	.db #0x10	; 16
	.db #0x00	; 0
	.db #0x5a	; 90	'Z'
	.db #0x00	; 0
	.db #0x00	; 0
	.db #0x5a	; 90	'Z'
	.db #0x0e	; 14
	.db #0x01	; 1
	.db #0x14	; 20
	.db #0x10	; 16
	.db #0x00	; 0
	.db #0x10	; 16
	.db #0x10	; 16
	.db #0x00	; 0
	.db #0x0f	; 15
	.db #0x10	; 16
	.db #0x00	; 0
	.db #0x0a	; 10
	.db #0x10	; 16
	.db #0x00	; 0
	.db #0x0d	; 13
	.db #0x10	; 16
	.db #0x00	; 0
	.db #0x0a	; 10
	.db #0x10	; 16
	.db #0x00	; 0
	.db #0x06	; 6
	.db #0x10	; 16
	.db #0x00	; 0
	.db #0x08	; 8
	.db #0x10	; 16
	.db #0x00	; 0
	.db #0x0d	; 13
	.db #0x10	; 16
	.db #0x00	; 0
	.db #0x17	; 23
	.db #0x10	; 16
	.db #0x00	; 0
	.db #0x5a	; 90	'Z'
	.db #0x00	; 0
	.db #0x00	; 0
	.db #0x5a	; 90	'Z'
	.db #0x00	; 0
	.db #0x00	; 0
	.db #0x5a	; 90	'Z'
	.db #0x00	; 0
	.db #0x00	; 0
	.db #0x5a	; 90	'Z'
	.db #0x00	; 0
	.db #0x00	; 0
	.db #0x5a	; 90	'Z'
	.db #0x00	; 0
	.db #0x00	; 0
	.db #0x5a	; 90	'Z'
	.db #0x00	; 0
	.db #0x00	; 0
	.db #0x5a	; 90	'Z'
	.db #0x00	; 0
	.db #0x00	; 0
	.db #0x10	; 16
	.db #0x10	; 16
	.db #0x00	; 0
	.db #0x5a	; 90	'Z'
	.db #0x00	; 0
	.db #0x00	; 0
	.db #0x12	; 18
	.db #0x10	; 16
	.db #0x00	; 0
	.db #0x5a	; 90	'Z'
	.db #0x00	; 0
	.db #0x00	; 0
	.db #0x14	; 20
	.db #0x10	; 16
	.db #0x00	; 0
	.db #0x5a	; 90	'Z'
	.db #0x00	; 0
	.db #0x00	; 0
	.db #0x10	; 16
	.db #0x10	; 16
	.db #0x00	; 0
	.db #0x5a	; 90	'Z'
	.db #0x00	; 0
	.db #0x00	; 0
	.db #0x17	; 23
	.db #0x10	; 16
	.db #0x00	; 0
	.db #0x5a	; 90	'Z'
	.db #0x00	; 0
	.db #0x00	; 0
	.db #0x5a	; 90	'Z'
	.db #0x00	; 0
	.db #0x00	; 0
	.db #0x5a	; 90	'Z'
	.db #0x00	; 0
	.db #0x00	; 0
	.db #0x5a	; 90	'Z'
	.db #0x00	; 0
	.db #0x00	; 0
	.db #0x5a	; 90	'Z'
	.db #0x00	; 0
	.db #0x00	; 0
	.db #0x5a	; 90	'Z'
	.db #0x00	; 0
	.db #0x00	; 0
	.db #0x5a	; 90	'Z'
	.db #0x00	; 0
	.db #0x00	; 0
	.db #0x5a	; 90	'Z'
	.db #0x00	; 0
	.db #0x00	; 0
	.db #0x5a	; 90	'Z'
	.db #0x00	; 0
	.db #0x00	; 0
	.db #0x5a	; 90	'Z'
	.db #0x00	; 0
	.db #0x00	; 0
	.db #0x5a	; 90	'Z'
	.db #0x00	; 0
	.db #0x00	; 0
	.db #0x5a	; 90	'Z'
	.db #0x00	; 0
	.db #0x00	; 0
	.db #0x5a	; 90	'Z'
	.db #0x00	; 0
	.db #0x00	; 0
	.db #0x5a	; 90	'Z'
	.db #0x00	; 0
	.db #0x00	; 0
	.db #0x5a	; 90	'Z'
	.db #0x00	; 0
	.db #0x00	; 0
	.db #0x5a	; 90	'Z'
	.db #0x00	; 0
	.db #0x00	; 0
	.db #0x5a	; 90	'Z'
	.db #0x00	; 0
	.db #0x00	; 0
	.db #0x5a	; 90	'Z'
	.db #0x00	; 0
	.db #0x00	; 0
	.db #0x5a	; 90	'Z'
	.db #0x00	; 0
	.db #0x00	; 0
	.db #0x5a	; 90	'Z'
	.db #0x00	; 0
	.db #0x00	; 0
	.db #0x5a	; 90	'Z'
	.db #0x00	; 0
	.db #0x00	; 0
	.db #0x5a	; 90	'Z'
	.db #0x00	; 0
	.db #0x00	; 0
	.db #0x5a	; 90	'Z'
	.db #0x00	; 0
	.db #0x00	; 0
_P2:
	.db #0x5a	; 90	'Z'
	.db #0x0e	; 14
	.db #0x01	; 1
	.db #0x5a	; 90	'Z'
	.db #0x00	; 0
	.db #0x00	; 0
	.db #0x5a	; 90	'Z'
	.db #0x00	; 0
	.db #0x00	; 0
	.db #0x5a	; 90	'Z'
	.db #0x00	; 0
	.db #0x00	; 0
	.db #0x5a	; 90	'Z'
	.db #0x00	; 0
	.db #0x00	; 0
	.db #0x5a	; 90	'Z'
	.db #0x00	; 0
	.db #0x00	; 0
	.db #0x5a	; 90	'Z'
	.db #0x00	; 0
	.db #0x00	; 0
	.db #0x5a	; 90	'Z'
	.db #0x00	; 0
	.db #0x00	; 0
	.db #0x5a	; 90	'Z'
	.db #0x00	; 0
	.db #0x00	; 0
	.db #0x5a	; 90	'Z'
	.db #0x00	; 0
	.db #0x00	; 0
	.db #0x5a	; 90	'Z'
	.db #0x00	; 0
	.db #0x00	; 0
	.db #0x5a	; 90	'Z'
	.db #0x00	; 0
	.db #0x00	; 0
	.db #0x08	; 8
	.db #0x10	; 16
	.db #0x00	; 0
	.db #0x5a	; 90	'Z'
	.db #0x00	; 0
	.db #0x00	; 0
	.db #0x5a	; 90	'Z'
	.db #0x00	; 0
	.db #0x00	; 0
	.db #0x5a	; 90	'Z'
	.db #0x00	; 0
	.db #0x00	; 0
	.db #0x5a	; 90	'Z'
	.db #0x00	; 0
	.db #0x00	; 0
	.db #0x5a	; 90	'Z'
	.db #0x00	; 0
	.db #0x00	; 0
	.db #0x5a	; 90	'Z'
	.db #0x00	; 0
	.db #0x00	; 0
	.db #0x5a	; 90	'Z'
	.db #0x00	; 0
	.db #0x00	; 0
	.db #0x5a	; 90	'Z'
	.db #0x00	; 0
	.db #0x00	; 0
	.db #0x5a	; 90	'Z'
	.db #0x00	; 0
	.db #0x00	; 0
	.db #0x5a	; 90	'Z'
	.db #0x00	; 0
	.db #0x00	; 0
	.db #0x5a	; 90	'Z'
	.db #0x00	; 0
	.db #0x00	; 0
	.db #0x04	; 4
	.db #0x10	; 16
	.db #0x00	; 0
	.db #0x5a	; 90	'Z'
	.db #0x00	; 0
	.db #0x00	; 0
	.db #0x5a	; 90	'Z'
	.db #0x00	; 0
	.db #0x00	; 0
	.db #0x5a	; 90	'Z'
	.db #0x00	; 0
	.db #0x00	; 0
	.db #0x5a	; 90	'Z'
	.db #0x00	; 0
	.db #0x00	; 0
	.db #0x5a	; 90	'Z'
	.db #0x00	; 0
	.db #0x00	; 0
	.db #0x5a	; 90	'Z'
	.db #0x00	; 0
	.db #0x00	; 0
	.db #0x5a	; 90	'Z'
	.db #0x00	; 0
	.db #0x00	; 0
	.db #0x5a	; 90	'Z'
	.db #0x00	; 0
	.db #0x00	; 0
	.db #0x5a	; 90	'Z'
	.db #0x00	; 0
	.db #0x00	; 0
	.db #0x5a	; 90	'Z'
	.db #0x00	; 0
	.db #0x00	; 0
	.db #0x5a	; 90	'Z'
	.db #0x00	; 0
	.db #0x00	; 0
	.db #0x5a	; 90	'Z'
	.db #0x00	; 0
	.db #0x00	; 0
	.db #0x5a	; 90	'Z'
	.db #0x00	; 0
	.db #0x00	; 0
	.db #0x5a	; 90	'Z'
	.db #0x00	; 0
	.db #0x00	; 0
	.db #0x5a	; 90	'Z'
	.db #0x00	; 0
	.db #0x00	; 0
	.db #0x08	; 8
	.db #0x10	; 16
	.db #0x00	; 0
	.db #0x5a	; 90	'Z'
	.db #0x00	; 0
	.db #0x00	; 0
	.db #0x5a	; 90	'Z'
	.db #0x00	; 0
	.db #0x00	; 0
	.db #0x5a	; 90	'Z'
	.db #0x00	; 0
	.db #0x00	; 0
	.db #0x5a	; 90	'Z'
	.db #0x00	; 0
	.db #0x00	; 0
	.db #0x5a	; 90	'Z'
	.db #0x00	; 0
	.db #0x00	; 0
	.db #0x5a	; 90	'Z'
	.db #0x00	; 0
	.db #0x00	; 0
	.db #0x5a	; 90	'Z'
	.db #0x00	; 0
	.db #0x00	; 0
	.db #0x5a	; 90	'Z'
	.db #0x00	; 0
	.db #0x00	; 0
	.db #0x5a	; 90	'Z'
	.db #0x00	; 0
	.db #0x00	; 0
	.db #0x5a	; 90	'Z'
	.db #0x00	; 0
	.db #0x00	; 0
	.db #0x5a	; 90	'Z'
	.db #0x00	; 0
	.db #0x00	; 0
	.db #0x5a	; 90	'Z'
	.db #0x00	; 0
	.db #0x00	; 0
	.db #0x5a	; 90	'Z'
	.db #0x00	; 0
	.db #0x00	; 0
	.db #0x5a	; 90	'Z'
	.db #0x00	; 0
	.db #0x00	; 0
	.db #0x5a	; 90	'Z'
	.db #0x00	; 0
	.db #0x00	; 0
	.db #0x04	; 4
	.db #0x10	; 16
	.db #0x00	; 0
	.db #0x5a	; 90	'Z'
	.db #0x00	; 0
	.db #0x00	; 0
	.db #0x5a	; 90	'Z'
	.db #0x00	; 0
	.db #0x00	; 0
	.db #0x5a	; 90	'Z'
	.db #0x00	; 0
	.db #0x00	; 0
	.db #0x5a	; 90	'Z'
	.db #0x00	; 0
	.db #0x00	; 0
	.db #0x5a	; 90	'Z'
	.db #0x00	; 0
	.db #0x00	; 0
	.db #0x5a	; 90	'Z'
	.db #0x00	; 0
	.db #0x00	; 0
	.db #0x5a	; 90	'Z'
	.db #0x00	; 0
	.db #0x00	; 0
_P3:
	.db #0x5a	; 90	'Z'
	.db #0x00	; 0
	.db #0x00	; 0
	.db #0x5a	; 90	'Z'
	.db #0x00	; 0
	.db #0x00	; 0
	.db #0x5a	; 90	'Z'
	.db #0x00	; 0
	.db #0x00	; 0
	.db #0x5a	; 90	'Z'
	.db #0x00	; 0
	.db #0x00	; 0
	.db #0x5a	; 90	'Z'
	.db #0x00	; 0
	.db #0x00	; 0
	.db #0x5a	; 90	'Z'
	.db #0x00	; 0
	.db #0x00	; 0
	.db #0x5a	; 90	'Z'
	.db #0x00	; 0
	.db #0x00	; 0
	.db #0x5a	; 90	'Z'
	.db #0x00	; 0
	.db #0x00	; 0
	.db #0x5a	; 90	'Z'
	.db #0x00	; 0
	.db #0x00	; 0
	.db #0x5a	; 90	'Z'
	.db #0x00	; 0
	.db #0x00	; 0
	.db #0x3e	; 62
	.db #0x10	; 16
	.db #0x00	; 0
	.db #0x5a	; 90	'Z'
	.db #0x00	; 0
	.db #0x00	; 0
	.db #0x5a	; 90	'Z'
	.db #0x00	; 0
	.db #0x00	; 0
	.db #0x5a	; 90	'Z'
	.db #0x00	; 0
	.db #0x00	; 0
	.db #0x3e	; 62
	.db #0x10	; 16
	.db #0x00	; 0
	.db #0x5a	; 90	'Z'
	.db #0x00	; 0
	.db #0x00	; 0
	.db #0x35	; 53	'5'
	.db #0x20	; 32
	.db #0x00	; 0
	.db #0x5a	; 90	'Z'
	.db #0x00	; 0
	.db #0x00	; 0
	.db #0x5a	; 90	'Z'
	.db #0x00	; 0
	.db #0x00	; 0
	.db #0x5a	; 90	'Z'
	.db #0x00	; 0
	.db #0x00	; 0
	.db #0x5a	; 90	'Z'
	.db #0x00	; 0
	.db #0x00	; 0
	.db #0x5a	; 90	'Z'
	.db #0x00	; 0
	.db #0x00	; 0
	.db #0x3f	; 63
	.db #0x20	; 32
	.db #0x00	; 0
	.db #0x5a	; 90	'Z'
	.db #0x00	; 0
	.db #0x00	; 0
	.db #0x5a	; 90	'Z'
	.db #0x00	; 0
	.db #0x00	; 0
	.db #0x5a	; 90	'Z'
	.db #0x00	; 0
	.db #0x00	; 0
	.db #0x3e	; 62
	.db #0x10	; 16
	.db #0x00	; 0
	.db #0x5a	; 90	'Z'
	.db #0x00	; 0
	.db #0x00	; 0
	.db #0x37	; 55	'7'
	.db #0x40	; 64
	.db #0x00	; 0
	.db #0x5a	; 90	'Z'
	.db #0x00	; 0
	.db #0x00	; 0
	.db #0x3e	; 62
	.db #0x10	; 16
	.db #0x00	; 0
	.db #0x5a	; 90	'Z'
	.db #0x00	; 0
	.db #0x00	; 0
	.db #0x5a	; 90	'Z'
	.db #0x00	; 0
	.db #0x00	; 0
	.db #0x5a	; 90	'Z'
	.db #0x00	; 0
	.db #0x00	; 0
	.db #0x5a	; 90	'Z'
	.db #0x00	; 0
	.db #0x00	; 0
	.db #0x5a	; 90	'Z'
	.db #0x00	; 0
	.db #0x00	; 0
	.db #0x3e	; 62
	.db #0x10	; 16
	.db #0x00	; 0
	.db #0x5a	; 90	'Z'
	.db #0x00	; 0
	.db #0x00	; 0
	.db #0x3e	; 62
	.db #0x10	; 16
	.db #0x00	; 0
	.db #0x5a	; 90	'Z'
	.db #0x00	; 0
	.db #0x00	; 0
	.db #0x5a	; 90	'Z'
	.db #0x00	; 0
	.db #0x00	; 0
	.db #0x5a	; 90	'Z'
	.db #0x00	; 0
	.db #0x00	; 0
	.db #0x3e	; 62
	.db #0x10	; 16
	.db #0x00	; 0
	.db #0x5a	; 90	'Z'
	.db #0x00	; 0
	.db #0x00	; 0
	.db #0x5a	; 90	'Z'
	.db #0x00	; 0
	.db #0x00	; 0
	.db #0x5a	; 90	'Z'
	.db #0x00	; 0
	.db #0x00	; 0
	.db #0x3e	; 62
	.db #0x10	; 16
	.db #0x00	; 0
	.db #0x5a	; 90	'Z'
	.db #0x00	; 0
	.db #0x00	; 0
	.db #0x35	; 53	'5'
	.db #0x20	; 32
	.db #0x00	; 0
	.db #0x5a	; 90	'Z'
	.db #0x00	; 0
	.db #0x00	; 0
	.db #0x5a	; 90	'Z'
	.db #0x00	; 0
	.db #0x00	; 0
	.db #0x5a	; 90	'Z'
	.db #0x00	; 0
	.db #0x00	; 0
	.db #0x5a	; 90	'Z'
	.db #0x00	; 0
	.db #0x00	; 0
	.db #0x5a	; 90	'Z'
	.db #0x00	; 0
	.db #0x00	; 0
	.db #0x3f	; 63
	.db #0x20	; 32
	.db #0x00	; 0
	.db #0x5a	; 90	'Z'
	.db #0x00	; 0
	.db #0x00	; 0
	.db #0x5a	; 90	'Z'
	.db #0x00	; 0
	.db #0x00	; 0
	.db #0x5a	; 90	'Z'
	.db #0x00	; 0
	.db #0x00	; 0
	.db #0x3e	; 62
	.db #0x10	; 16
	.db #0x00	; 0
	.db #0x5a	; 90	'Z'
	.db #0x00	; 0
	.db #0x00	; 0
	.db #0x37	; 55	'7'
	.db #0x40	; 64
	.db #0x00	; 0
	.db #0x5a	; 90	'Z'
	.db #0x00	; 0
	.db #0x00	; 0
	.db #0x3e	; 62
	.db #0x10	; 16
	.db #0x00	; 0
	.db #0x5a	; 90	'Z'
	.db #0x00	; 0
	.db #0x00	; 0
_P4:
	.db #0x5a	; 90	'Z'
	.db #0x00	; 0
	.db #0x00	; 0
	.db #0x5a	; 90	'Z'
	.db #0x00	; 0
	.db #0x00	; 0
	.db #0x16	; 22
	.db #0x10	; 16
	.db #0x00	; 0
	.db #0x5a	; 90	'Z'
	.db #0x00	; 0
	.db #0x00	; 0
	.db #0x17	; 23
	.db #0x10	; 16
	.db #0x00	; 0
	.db #0x5a	; 90	'Z'
	.db #0x00	; 0
	.db #0x00	; 0
	.db #0x0f	; 15
	.db #0x10	; 16
	.db #0x00	; 0
	.db #0x5a	; 90	'Z'
	.db #0x00	; 0
	.db #0x00	; 0
	.db #0x1b	; 27
	.db #0x10	; 16
	.db #0x00	; 0
	.db #0x5a	; 90	'Z'
	.db #0x00	; 0
	.db #0x00	; 0
	.db #0x5a	; 90	'Z'
	.db #0x00	; 0
	.db #0x00	; 0
	.db #0x5a	; 90	'Z'
	.db #0x00	; 0
	.db #0x00	; 0
	.db #0x1c	; 28
	.db #0x10	; 16
	.db #0x00	; 0
	.db #0x5a	; 90	'Z'
	.db #0x00	; 0
	.db #0x00	; 0
	.db #0x1b	; 27
	.db #0x10	; 16
	.db #0x00	; 0
	.db #0x5a	; 90	'Z'
	.db #0x00	; 0
	.db #0x00	; 0
	.db #0x5a	; 90	'Z'
	.db #0x00	; 0
	.db #0x00	; 0
	.db #0x5a	; 90	'Z'
	.db #0x00	; 0
	.db #0x00	; 0
	.db #0x16	; 22
	.db #0x10	; 16
	.db #0x00	; 0
	.db #0x5a	; 90	'Z'
	.db #0x00	; 0
	.db #0x00	; 0
	.db #0x17	; 23
	.db #0x10	; 16
	.db #0x00	; 0
	.db #0x5a	; 90	'Z'
	.db #0x00	; 0
	.db #0x00	; 0
	.db #0x13	; 19
	.db #0x10	; 16
	.db #0x00	; 0
	.db #0x5a	; 90	'Z'
	.db #0x00	; 0
	.db #0x00	; 0
	.db #0x14	; 20
	.db #0x10	; 16
	.db #0x00	; 0
	.db #0x5a	; 90	'Z'
	.db #0x00	; 0
	.db #0x00	; 0
	.db #0x5a	; 90	'Z'
	.db #0x00	; 0
	.db #0x00	; 0
	.db #0x5a	; 90	'Z'
	.db #0x00	; 0
	.db #0x00	; 0
	.db #0x5a	; 90	'Z'
	.db #0x00	; 0
	.db #0x00	; 0
	.db #0x5a	; 90	'Z'
	.db #0x00	; 0
	.db #0x00	; 0
	.db #0x5a	; 90	'Z'
	.db #0x00	; 0
	.db #0x00	; 0
	.db #0x5a	; 90	'Z'
	.db #0x00	; 0
	.db #0x00	; 0
	.db #0x12	; 18
	.db #0x10	; 16
	.db #0x00	; 0
	.db #0x5a	; 90	'Z'
	.db #0x00	; 0
	.db #0x00	; 0
	.db #0x16	; 22
	.db #0x10	; 16
	.db #0x00	; 0
	.db #0x5a	; 90	'Z'
	.db #0x00	; 0
	.db #0x00	; 0
	.db #0x17	; 23
	.db #0x10	; 16
	.db #0x00	; 0
	.db #0x5a	; 90	'Z'
	.db #0x00	; 0
	.db #0x00	; 0
	.db #0x19	; 25
	.db #0x10	; 16
	.db #0x00	; 0
	.db #0x5a	; 90	'Z'
	.db #0x00	; 0
	.db #0x00	; 0
	.db #0x1b	; 27
	.db #0x10	; 16
	.db #0x00	; 0
	.db #0x5a	; 90	'Z'
	.db #0x00	; 0
	.db #0x00	; 0
	.db #0x5a	; 90	'Z'
	.db #0x00	; 0
	.db #0x00	; 0
	.db #0x5a	; 90	'Z'
	.db #0x00	; 0
	.db #0x00	; 0
	.db #0x5a	; 90	'Z'
	.db #0x00	; 0
	.db #0x00	; 0
	.db #0x5a	; 90	'Z'
	.db #0x00	; 0
	.db #0x00	; 0
	.db #0x5a	; 90	'Z'
	.db #0x00	; 0
	.db #0x00	; 0
	.db #0x5a	; 90	'Z'
	.db #0x00	; 0
	.db #0x00	; 0
	.db #0x5a	; 90	'Z'
	.db #0x00	; 0
	.db #0x00	; 0
	.db #0x5a	; 90	'Z'
	.db #0x00	; 0
	.db #0x00	; 0
	.db #0x16	; 22
	.db #0x10	; 16
	.db #0x00	; 0
	.db #0x5a	; 90	'Z'
	.db #0x00	; 0
	.db #0x00	; 0
	.db #0x17	; 23
	.db #0x10	; 16
	.db #0x00	; 0
	.db #0x5a	; 90	'Z'
	.db #0x00	; 0
	.db #0x00	; 0
	.db #0x13	; 19
	.db #0x10	; 16
	.db #0x00	; 0
	.db #0x5a	; 90	'Z'
	.db #0x00	; 0
	.db #0x00	; 0
	.db #0x14	; 20
	.db #0x10	; 16
	.db #0x00	; 0
	.db #0x5a	; 90	'Z'
	.db #0x00	; 0
	.db #0x00	; 0
	.db #0x5a	; 90	'Z'
	.db #0x00	; 0
	.db #0x00	; 0
	.db #0x5a	; 90	'Z'
	.db #0x00	; 0
	.db #0x00	; 0
	.db #0x5a	; 90	'Z'
	.db #0x00	; 0
	.db #0x00	; 0
	.db #0x5a	; 90	'Z'
	.db #0x00	; 0
	.db #0x00	; 0
	.db #0x5a	; 90	'Z'
	.db #0x00	; 0
	.db #0x00	; 0
	.db #0x5a	; 90	'Z'
	.db #0x00	; 0
	.db #0x00	; 0
_P5:
	.db #0x5a	; 90	'Z'
	.db #0x00	; 0
	.db #0x00	; 0
	.db #0x5a	; 90	'Z'
	.db #0x00	; 0
	.db #0x00	; 0
	.db #0x5a	; 90	'Z'
	.db #0x00	; 0
	.db #0x00	; 0
	.db #0x5a	; 90	'Z'
	.db #0x00	; 0
	.db #0x00	; 0
	.db #0x5a	; 90	'Z'
	.db #0x00	; 0
	.db #0x00	; 0
	.db #0x5a	; 90	'Z'
	.db #0x00	; 0
	.db #0x00	; 0
	.db #0x5a	; 90	'Z'
	.db #0x00	; 0
	.db #0x00	; 0
	.db #0x5a	; 90	'Z'
	.db #0x00	; 0
	.db #0x00	; 0
	.db #0x17	; 23
	.db #0x10	; 16
	.db #0x00	; 0
	.db #0x5a	; 90	'Z'
	.db #0x00	; 0
	.db #0x00	; 0
	.db #0x5a	; 90	'Z'
	.db #0x00	; 0
	.db #0x00	; 0
	.db #0x5a	; 90	'Z'
	.db #0x00	; 0
	.db #0x00	; 0
	.db #0x5a	; 90	'Z'
	.db #0x00	; 0
	.db #0x00	; 0
	.db #0x5a	; 90	'Z'
	.db #0x00	; 0
	.db #0x00	; 0
	.db #0x5a	; 90	'Z'
	.db #0x00	; 0
	.db #0x00	; 0
	.db #0x5a	; 90	'Z'
	.db #0x00	; 0
	.db #0x00	; 0
	.db #0x5a	; 90	'Z'
	.db #0x00	; 0
	.db #0x00	; 0
	.db #0x5a	; 90	'Z'
	.db #0x00	; 0
	.db #0x00	; 0
	.db #0x5a	; 90	'Z'
	.db #0x00	; 0
	.db #0x00	; 0
	.db #0x5a	; 90	'Z'
	.db #0x00	; 0
	.db #0x00	; 0
	.db #0x5a	; 90	'Z'
	.db #0x00	; 0
	.db #0x00	; 0
	.db #0x5a	; 90	'Z'
	.db #0x00	; 0
	.db #0x00	; 0
	.db #0x5a	; 90	'Z'
	.db #0x00	; 0
	.db #0x00	; 0
	.db #0x5a	; 90	'Z'
	.db #0x00	; 0
	.db #0x00	; 0
	.db #0x5a	; 90	'Z'
	.db #0x00	; 0
	.db #0x00	; 0
	.db #0x5a	; 90	'Z'
	.db #0x00	; 0
	.db #0x00	; 0
	.db #0x5a	; 90	'Z'
	.db #0x00	; 0
	.db #0x00	; 0
	.db #0x5a	; 90	'Z'
	.db #0x00	; 0
	.db #0x00	; 0
	.db #0x5a	; 90	'Z'
	.db #0x00	; 0
	.db #0x00	; 0
	.db #0x5a	; 90	'Z'
	.db #0x00	; 0
	.db #0x00	; 0
	.db #0x5a	; 90	'Z'
	.db #0x00	; 0
	.db #0x00	; 0
	.db #0x5a	; 90	'Z'
	.db #0x00	; 0
	.db #0x00	; 0
	.db #0x16	; 22
	.db #0xc0	; 192
	.db #0x00	; 0
	.db #0x5a	; 90	'Z'
	.db #0x00	; 0
	.db #0x00	; 0
	.db #0x5a	; 90	'Z'
	.db #0x00	; 0
	.db #0x00	; 0
	.db #0x5a	; 90	'Z'
	.db #0x00	; 0
	.db #0x00	; 0
	.db #0x5a	; 90	'Z'
	.db #0x00	; 0
	.db #0x00	; 0
	.db #0x5a	; 90	'Z'
	.db #0x00	; 0
	.db #0x00	; 0
	.db #0x5a	; 90	'Z'
	.db #0x00	; 0
	.db #0x00	; 0
	.db #0x5a	; 90	'Z'
	.db #0x00	; 0
	.db #0x00	; 0
	.db #0x17	; 23
	.db #0x10	; 16
	.db #0x00	; 0
	.db #0x5a	; 90	'Z'
	.db #0x00	; 0
	.db #0x00	; 0
	.db #0x5a	; 90	'Z'
	.db #0x00	; 0
	.db #0x00	; 0
	.db #0x5a	; 90	'Z'
	.db #0x00	; 0
	.db #0x00	; 0
	.db #0x5a	; 90	'Z'
	.db #0x00	; 0
	.db #0x00	; 0
	.db #0x5a	; 90	'Z'
	.db #0x00	; 0
	.db #0x00	; 0
	.db #0x5a	; 90	'Z'
	.db #0x00	; 0
	.db #0x00	; 0
	.db #0x5a	; 90	'Z'
	.db #0x00	; 0
	.db #0x00	; 0
	.db #0x5a	; 90	'Z'
	.db #0x00	; 0
	.db #0x00	; 0
	.db #0x5a	; 90	'Z'
	.db #0x00	; 0
	.db #0x00	; 0
	.db #0x5a	; 90	'Z'
	.db #0x00	; 0
	.db #0x00	; 0
	.db #0x5a	; 90	'Z'
	.db #0x00	; 0
	.db #0x00	; 0
	.db #0x5a	; 90	'Z'
	.db #0x00	; 0
	.db #0x00	; 0
	.db #0x5a	; 90	'Z'
	.db #0x00	; 0
	.db #0x00	; 0
	.db #0x5a	; 90	'Z'
	.db #0x00	; 0
	.db #0x00	; 0
	.db #0x5a	; 90	'Z'
	.db #0x00	; 0
	.db #0x00	; 0
	.db #0x5a	; 90	'Z'
	.db #0x00	; 0
	.db #0x00	; 0
	.db #0x5a	; 90	'Z'
	.db #0x00	; 0
	.db #0x00	; 0
	.db #0x5a	; 90	'Z'
	.db #0x00	; 0
	.db #0x00	; 0
	.db #0x5a	; 90	'Z'
	.db #0x00	; 0
	.db #0x00	; 0
	.db #0x5a	; 90	'Z'
	.db #0x00	; 0
	.db #0x00	; 0
	.db #0x5a	; 90	'Z'
	.db #0x00	; 0
	.db #0x00	; 0
	.db #0x5a	; 90	'Z'
	.db #0x00	; 0
	.db #0x00	; 0
	.db #0x5a	; 90	'Z'
	.db #0x00	; 0
	.db #0x00	; 0
_P6:
	.db #0x5a	; 90	'Z'
	.db #0x00	; 0
	.db #0x00	; 0
	.db #0x5a	; 90	'Z'
	.db #0x00	; 0
	.db #0x00	; 0
	.db #0x5a	; 90	'Z'
	.db #0x00	; 0
	.db #0x00	; 0
	.db #0x5a	; 90	'Z'
	.db #0x00	; 0
	.db #0x00	; 0
	.db #0x5a	; 90	'Z'
	.db #0x00	; 0
	.db #0x00	; 0
	.db #0x5a	; 90	'Z'
	.db #0x00	; 0
	.db #0x00	; 0
	.db #0x5a	; 90	'Z'
	.db #0x00	; 0
	.db #0x00	; 0
	.db #0x5a	; 90	'Z'
	.db #0x00	; 0
	.db #0x00	; 0
	.db #0x08	; 8
	.db #0x10	; 16
	.db #0x00	; 0
	.db #0x5a	; 90	'Z'
	.db #0x00	; 0
	.db #0x00	; 0
	.db #0x5a	; 90	'Z'
	.db #0x00	; 0
	.db #0x00	; 0
	.db #0x5a	; 90	'Z'
	.db #0x00	; 0
	.db #0x00	; 0
	.db #0x5a	; 90	'Z'
	.db #0x00	; 0
	.db #0x00	; 0
	.db #0x5a	; 90	'Z'
	.db #0x00	; 0
	.db #0x00	; 0
	.db #0x5a	; 90	'Z'
	.db #0x00	; 0
	.db #0x00	; 0
	.db #0x5a	; 90	'Z'
	.db #0x00	; 0
	.db #0x00	; 0
	.db #0x5a	; 90	'Z'
	.db #0x00	; 0
	.db #0x00	; 0
	.db #0x5a	; 90	'Z'
	.db #0x00	; 0
	.db #0x00	; 0
	.db #0x5a	; 90	'Z'
	.db #0x00	; 0
	.db #0x00	; 0
	.db #0x5a	; 90	'Z'
	.db #0x00	; 0
	.db #0x00	; 0
	.db #0x5a	; 90	'Z'
	.db #0x00	; 0
	.db #0x00	; 0
	.db #0x5a	; 90	'Z'
	.db #0x00	; 0
	.db #0x00	; 0
	.db #0x5a	; 90	'Z'
	.db #0x00	; 0
	.db #0x00	; 0
	.db #0x5a	; 90	'Z'
	.db #0x00	; 0
	.db #0x00	; 0
	.db #0x1c	; 28
	.db #0x10	; 16
	.db #0x00	; 0
	.db #0x5a	; 90	'Z'
	.db #0x00	; 0
	.db #0x00	; 0
	.db #0x5a	; 90	'Z'
	.db #0x00	; 0
	.db #0x00	; 0
	.db #0x5a	; 90	'Z'
	.db #0x00	; 0
	.db #0x00	; 0
	.db #0x5a	; 90	'Z'
	.db #0x00	; 0
	.db #0x00	; 0
	.db #0x5a	; 90	'Z'
	.db #0x00	; 0
	.db #0x00	; 0
	.db #0x5a	; 90	'Z'
	.db #0x00	; 0
	.db #0x00	; 0
	.db #0x5a	; 90	'Z'
	.db #0x00	; 0
	.db #0x00	; 0
	.db #0x5a	; 90	'Z'
	.db #0x00	; 0
	.db #0x00	; 0
	.db #0x5a	; 90	'Z'
	.db #0x00	; 0
	.db #0x00	; 0
	.db #0x5a	; 90	'Z'
	.db #0x00	; 0
	.db #0x00	; 0
	.db #0x5a	; 90	'Z'
	.db #0x00	; 0
	.db #0x00	; 0
	.db #0x5a	; 90	'Z'
	.db #0x00	; 0
	.db #0x00	; 0
	.db #0x5a	; 90	'Z'
	.db #0x00	; 0
	.db #0x00	; 0
	.db #0x5a	; 90	'Z'
	.db #0x00	; 0
	.db #0x00	; 0
	.db #0x5a	; 90	'Z'
	.db #0x00	; 0
	.db #0x00	; 0
	.db #0x08	; 8
	.db #0x10	; 16
	.db #0x00	; 0
	.db #0x5a	; 90	'Z'
	.db #0x00	; 0
	.db #0x00	; 0
	.db #0x5a	; 90	'Z'
	.db #0x00	; 0
	.db #0x00	; 0
	.db #0x5a	; 90	'Z'
	.db #0x00	; 0
	.db #0x00	; 0
	.db #0x5a	; 90	'Z'
	.db #0x00	; 0
	.db #0x00	; 0
	.db #0x5a	; 90	'Z'
	.db #0x00	; 0
	.db #0x00	; 0
	.db #0x5a	; 90	'Z'
	.db #0x00	; 0
	.db #0x00	; 0
	.db #0x5a	; 90	'Z'
	.db #0x00	; 0
	.db #0x00	; 0
	.db #0x5a	; 90	'Z'
	.db #0x00	; 0
	.db #0x00	; 0
	.db #0x5a	; 90	'Z'
	.db #0x00	; 0
	.db #0x00	; 0
	.db #0x5a	; 90	'Z'
	.db #0x00	; 0
	.db #0x00	; 0
	.db #0x5a	; 90	'Z'
	.db #0x00	; 0
	.db #0x00	; 0
	.db #0x5a	; 90	'Z'
	.db #0x00	; 0
	.db #0x00	; 0
	.db #0x5a	; 90	'Z'
	.db #0x00	; 0
	.db #0x00	; 0
	.db #0x5a	; 90	'Z'
	.db #0x00	; 0
	.db #0x00	; 0
	.db #0x5a	; 90	'Z'
	.db #0x00	; 0
	.db #0x00	; 0
	.db #0x04	; 4
	.db #0x10	; 16
	.db #0x00	; 0
	.db #0x5a	; 90	'Z'
	.db #0x00	; 0
	.db #0x00	; 0
	.db #0x5a	; 90	'Z'
	.db #0x00	; 0
	.db #0x00	; 0
	.db #0x5a	; 90	'Z'
	.db #0x00	; 0
	.db #0x00	; 0
	.db #0x5a	; 90	'Z'
	.db #0x00	; 0
	.db #0x00	; 0
	.db #0x5a	; 90	'Z'
	.db #0x00	; 0
	.db #0x00	; 0
	.db #0x5a	; 90	'Z'
	.db #0x00	; 0
	.db #0x00	; 0
	.db #0x5a	; 90	'Z'
	.db #0x00	; 0
	.db #0x00	; 0
_P7:
	.db #0x5a	; 90	'Z'
	.db #0x00	; 0
	.db #0x00	; 0
	.db #0x5a	; 90	'Z'
	.db #0x00	; 0
	.db #0x00	; 0
	.db #0x3e	; 62
	.db #0x10	; 16
	.db #0x00	; 0
	.db #0x5a	; 90	'Z'
	.db #0x00	; 0
	.db #0x00	; 0
	.db #0x5a	; 90	'Z'
	.db #0x00	; 0
	.db #0x00	; 0
	.db #0x5a	; 90	'Z'
	.db #0x00	; 0
	.db #0x00	; 0
	.db #0x3e	; 62
	.db #0x10	; 16
	.db #0x00	; 0
	.db #0x5a	; 90	'Z'
	.db #0x00	; 0
	.db #0x00	; 0
	.db #0x5a	; 90	'Z'
	.db #0x00	; 0
	.db #0x00	; 0
	.db #0x5a	; 90	'Z'
	.db #0x00	; 0
	.db #0x00	; 0
	.db #0x3e	; 62
	.db #0x10	; 16
	.db #0x00	; 0
	.db #0x5a	; 90	'Z'
	.db #0x00	; 0
	.db #0x00	; 0
	.db #0x3e	; 62
	.db #0x10	; 16
	.db #0x00	; 0
	.db #0x5a	; 90	'Z'
	.db #0x00	; 0
	.db #0x00	; 0
	.db #0x3e	; 62
	.db #0x10	; 16
	.db #0x00	; 0
	.db #0x5a	; 90	'Z'
	.db #0x00	; 0
	.db #0x00	; 0
	.db #0x5a	; 90	'Z'
	.db #0x00	; 0
	.db #0x00	; 0
	.db #0x5a	; 90	'Z'
	.db #0x00	; 0
	.db #0x00	; 0
	.db #0x3e	; 62
	.db #0x10	; 16
	.db #0x00	; 0
	.db #0x5a	; 90	'Z'
	.db #0x00	; 0
	.db #0x00	; 0
	.db #0x5a	; 90	'Z'
	.db #0x00	; 0
	.db #0x00	; 0
	.db #0x5a	; 90	'Z'
	.db #0x00	; 0
	.db #0x00	; 0
	.db #0x3e	; 62
	.db #0x10	; 16
	.db #0x00	; 0
	.db #0x5a	; 90	'Z'
	.db #0x00	; 0
	.db #0x00	; 0
	.db #0x5a	; 90	'Z'
	.db #0x00	; 0
	.db #0x00	; 0
	.db #0x5a	; 90	'Z'
	.db #0x00	; 0
	.db #0x00	; 0
	.db #0x3e	; 62
	.db #0x10	; 16
	.db #0x00	; 0
	.db #0x5a	; 90	'Z'
	.db #0x00	; 0
	.db #0x00	; 0
	.db #0x5a	; 90	'Z'
	.db #0x00	; 0
	.db #0x00	; 0
	.db #0x5a	; 90	'Z'
	.db #0x00	; 0
	.db #0x00	; 0
	.db #0x3e	; 62
	.db #0x10	; 16
	.db #0x00	; 0
	.db #0x5a	; 90	'Z'
	.db #0x00	; 0
	.db #0x00	; 0
	.db #0x35	; 53	'5'
	.db #0x20	; 32
	.db #0x00	; 0
	.db #0x5a	; 90	'Z'
	.db #0x00	; 0
	.db #0x00	; 0
	.db #0x3e	; 62
	.db #0x10	; 16
	.db #0x00	; 0
	.db #0x5a	; 90	'Z'
	.db #0x00	; 0
	.db #0x00	; 0
	.db #0x3e	; 62
	.db #0x10	; 16
	.db #0x00	; 0
	.db #0x5a	; 90	'Z'
	.db #0x00	; 0
	.db #0x00	; 0
	.db #0x3e	; 62
	.db #0x10	; 16
	.db #0x00	; 0
	.db #0x5a	; 90	'Z'
	.db #0x00	; 0
	.db #0x00	; 0
	.db #0x5a	; 90	'Z'
	.db #0x00	; 0
	.db #0x00	; 0
	.db #0x5a	; 90	'Z'
	.db #0x00	; 0
	.db #0x00	; 0
	.db #0x3e	; 62
	.db #0x10	; 16
	.db #0x00	; 0
	.db #0x5a	; 90	'Z'
	.db #0x00	; 0
	.db #0x00	; 0
	.db #0x5a	; 90	'Z'
	.db #0x00	; 0
	.db #0x00	; 0
	.db #0x5a	; 90	'Z'
	.db #0x00	; 0
	.db #0x00	; 0
	.db #0x3e	; 62
	.db #0x10	; 16
	.db #0x00	; 0
	.db #0x5a	; 90	'Z'
	.db #0x00	; 0
	.db #0x00	; 0
	.db #0x5a	; 90	'Z'
	.db #0x00	; 0
	.db #0x00	; 0
	.db #0x5a	; 90	'Z'
	.db #0x00	; 0
	.db #0x00	; 0
	.db #0x3e	; 62
	.db #0x10	; 16
	.db #0x00	; 0
	.db #0x5a	; 90	'Z'
	.db #0x00	; 0
	.db #0x00	; 0
	.db #0x5a	; 90	'Z'
	.db #0x00	; 0
	.db #0x00	; 0
	.db #0x5a	; 90	'Z'
	.db #0x00	; 0
	.db #0x00	; 0
	.db #0x3e	; 62
	.db #0x10	; 16
	.db #0x00	; 0
	.db #0x5a	; 90	'Z'
	.db #0x00	; 0
	.db #0x00	; 0
	.db #0x5a	; 90	'Z'
	.db #0x00	; 0
	.db #0x00	; 0
	.db #0x5a	; 90	'Z'
	.db #0x00	; 0
	.db #0x00	; 0
	.db #0x3e	; 62
	.db #0x10	; 16
	.db #0x00	; 0
	.db #0x5a	; 90	'Z'
	.db #0x00	; 0
	.db #0x00	; 0
	.db #0x5a	; 90	'Z'
	.db #0x00	; 0
	.db #0x00	; 0
	.db #0x5a	; 90	'Z'
	.db #0x00	; 0
	.db #0x00	; 0
	.db #0x3e	; 62
	.db #0x10	; 16
	.db #0x00	; 0
	.db #0x5a	; 90	'Z'
	.db #0x00	; 0
	.db #0x00	; 0
_P8:
	.db #0x5a	; 90	'Z'
	.db #0x0e	; 14
	.db #0x01	; 1
	.db #0x5a	; 90	'Z'
	.db #0x00	; 0
	.db #0x00	; 0
	.db #0x16	; 22
	.db #0x10	; 16
	.db #0x00	; 0
	.db #0x5a	; 90	'Z'
	.db #0x00	; 0
	.db #0x00	; 0
	.db #0x17	; 23
	.db #0x10	; 16
	.db #0x00	; 0
	.db #0x5a	; 90	'Z'
	.db #0x00	; 0
	.db #0x00	; 0
	.db #0x0f	; 15
	.db #0x10	; 16
	.db #0x00	; 0
	.db #0x5a	; 90	'Z'
	.db #0x00	; 0
	.db #0x00	; 0
	.db #0x1b	; 27
	.db #0x10	; 16
	.db #0x00	; 0
	.db #0x5a	; 90	'Z'
	.db #0x00	; 0
	.db #0x00	; 0
	.db #0x5a	; 90	'Z'
	.db #0x00	; 0
	.db #0x00	; 0
	.db #0x5a	; 90	'Z'
	.db #0x00	; 0
	.db #0x00	; 0
	.db #0x1c	; 28
	.db #0x10	; 16
	.db #0x00	; 0
	.db #0x5a	; 90	'Z'
	.db #0x00	; 0
	.db #0x00	; 0
	.db #0x1b	; 27
	.db #0x10	; 16
	.db #0x00	; 0
	.db #0x5a	; 90	'Z'
	.db #0x00	; 0
	.db #0x00	; 0
	.db #0x5a	; 90	'Z'
	.db #0x00	; 0
	.db #0x00	; 0
	.db #0x5a	; 90	'Z'
	.db #0x00	; 0
	.db #0x00	; 0
	.db #0x16	; 22
	.db #0x10	; 16
	.db #0x00	; 0
	.db #0x5a	; 90	'Z'
	.db #0x00	; 0
	.db #0x00	; 0
	.db #0x17	; 23
	.db #0x10	; 16
	.db #0x00	; 0
	.db #0x5a	; 90	'Z'
	.db #0x00	; 0
	.db #0x00	; 0
	.db #0x13	; 19
	.db #0x10	; 16
	.db #0x00	; 0
	.db #0x5a	; 90	'Z'
	.db #0x00	; 0
	.db #0x00	; 0
	.db #0x14	; 20
	.db #0x10	; 16
	.db #0x00	; 0
	.db #0x5a	; 90	'Z'
	.db #0x00	; 0
	.db #0x00	; 0
	.db #0x5a	; 90	'Z'
	.db #0x0e	; 14
	.db #0x01	; 1
	.db #0x5a	; 90	'Z'
	.db #0x00	; 0
	.db #0x00	; 0
	.db #0x5a	; 90	'Z'
	.db #0x00	; 0
	.db #0x00	; 0
	.db #0x5a	; 90	'Z'
	.db #0x00	; 0
	.db #0x00	; 0
	.db #0x5a	; 90	'Z'
	.db #0x00	; 0
	.db #0x00	; 0
	.db #0x5a	; 90	'Z'
	.db #0x00	; 0
	.db #0x00	; 0
	.db #0x12	; 18
	.db #0x10	; 16
	.db #0x00	; 0
	.db #0x5a	; 90	'Z'
	.db #0x00	; 0
	.db #0x00	; 0
	.db #0x16	; 22
	.db #0x10	; 16
	.db #0x00	; 0
	.db #0x5a	; 90	'Z'
	.db #0x00	; 0
	.db #0x00	; 0
	.db #0x17	; 23
	.db #0x10	; 16
	.db #0x00	; 0
	.db #0x5a	; 90	'Z'
	.db #0x00	; 0
	.db #0x00	; 0
	.db #0x19	; 25
	.db #0x10	; 16
	.db #0x00	; 0
	.db #0x5a	; 90	'Z'
	.db #0x00	; 0
	.db #0x00	; 0
	.db #0x1b	; 27
	.db #0x10	; 16
	.db #0x00	; 0
	.db #0x5a	; 90	'Z'
	.db #0x00	; 0
	.db #0x00	; 0
	.db #0x5a	; 90	'Z'
	.db #0x00	; 0
	.db #0x00	; 0
	.db #0x5a	; 90	'Z'
	.db #0x00	; 0
	.db #0x00	; 0
	.db #0x5a	; 90	'Z'
	.db #0x00	; 0
	.db #0x00	; 0
	.db #0x5a	; 90	'Z'
	.db #0x00	; 0
	.db #0x00	; 0
	.db #0x5a	; 90	'Z'
	.db #0x00	; 0
	.db #0x00	; 0
	.db #0x5a	; 90	'Z'
	.db #0x00	; 0
	.db #0x00	; 0
	.db #0x5a	; 90	'Z'
	.db #0x00	; 0
	.db #0x00	; 0
	.db #0x5a	; 90	'Z'
	.db #0x00	; 0
	.db #0x00	; 0
	.db #0x16	; 22
	.db #0x10	; 16
	.db #0x00	; 0
	.db #0x5a	; 90	'Z'
	.db #0x00	; 0
	.db #0x00	; 0
	.db #0x17	; 23
	.db #0x10	; 16
	.db #0x00	; 0
	.db #0x5a	; 90	'Z'
	.db #0x00	; 0
	.db #0x00	; 0
	.db #0x13	; 19
	.db #0x10	; 16
	.db #0x00	; 0
	.db #0x5a	; 90	'Z'
	.db #0x00	; 0
	.db #0x00	; 0
	.db #0x14	; 20
	.db #0x10	; 16
	.db #0x00	; 0
	.db #0x5a	; 90	'Z'
	.db #0x00	; 0
	.db #0x00	; 0
	.db #0x5a	; 90	'Z'
	.db #0x00	; 0
	.db #0x00	; 0
	.db #0x5a	; 90	'Z'
	.db #0x00	; 0
	.db #0x00	; 0
	.db #0x5a	; 90	'Z'
	.db #0x00	; 0
	.db #0x00	; 0
	.db #0x5a	; 90	'Z'
	.db #0x00	; 0
	.db #0x00	; 0
	.db #0x5a	; 90	'Z'
	.db #0x00	; 0
	.db #0x00	; 0
	.db #0x5a	; 90	'Z'
	.db #0x00	; 0
	.db #0x00	; 0
_P9:
	.db #0x5a	; 90	'Z'
	.db #0x0e	; 14
	.db #0x01	; 1
	.db #0x5a	; 90	'Z'
	.db #0x00	; 0
	.db #0x00	; 0
	.db #0x5a	; 90	'Z'
	.db #0x00	; 0
	.db #0x00	; 0
	.db #0x5a	; 90	'Z'
	.db #0x00	; 0
	.db #0x00	; 0
	.db #0x5a	; 90	'Z'
	.db #0x00	; 0
	.db #0x00	; 0
	.db #0x5a	; 90	'Z'
	.db #0x00	; 0
	.db #0x00	; 0
	.db #0x5a	; 90	'Z'
	.db #0x00	; 0
	.db #0x00	; 0
	.db #0x5a	; 90	'Z'
	.db #0x00	; 0
	.db #0x00	; 0
	.db #0x17	; 23
	.db #0x10	; 16
	.db #0x00	; 0
	.db #0x5a	; 90	'Z'
	.db #0x00	; 0
	.db #0x00	; 0
	.db #0x5a	; 90	'Z'
	.db #0x00	; 0
	.db #0x00	; 0
	.db #0x5a	; 90	'Z'
	.db #0x00	; 0
	.db #0x00	; 0
	.db #0x5a	; 90	'Z'
	.db #0x00	; 0
	.db #0x00	; 0
	.db #0x5a	; 90	'Z'
	.db #0x00	; 0
	.db #0x00	; 0
	.db #0x5a	; 90	'Z'
	.db #0x00	; 0
	.db #0x00	; 0
	.db #0x5a	; 90	'Z'
	.db #0x00	; 0
	.db #0x00	; 0
	.db #0x5a	; 90	'Z'
	.db #0x00	; 0
	.db #0x00	; 0
	.db #0x5a	; 90	'Z'
	.db #0x00	; 0
	.db #0x00	; 0
	.db #0x5a	; 90	'Z'
	.db #0x00	; 0
	.db #0x00	; 0
	.db #0x5a	; 90	'Z'
	.db #0x00	; 0
	.db #0x00	; 0
	.db #0x5a	; 90	'Z'
	.db #0x00	; 0
	.db #0x00	; 0
	.db #0x5a	; 90	'Z'
	.db #0x00	; 0
	.db #0x00	; 0
	.db #0x5a	; 90	'Z'
	.db #0x00	; 0
	.db #0x00	; 0
	.db #0x5a	; 90	'Z'
	.db #0x00	; 0
	.db #0x00	; 0
	.db #0x5a	; 90	'Z'
	.db #0x00	; 0
	.db #0x00	; 0
	.db #0x5a	; 90	'Z'
	.db #0x00	; 0
	.db #0x00	; 0
	.db #0x5a	; 90	'Z'
	.db #0x00	; 0
	.db #0x00	; 0
	.db #0x5a	; 90	'Z'
	.db #0x00	; 0
	.db #0x00	; 0
	.db #0x5a	; 90	'Z'
	.db #0x00	; 0
	.db #0x00	; 0
	.db #0x5a	; 90	'Z'
	.db #0x00	; 0
	.db #0x00	; 0
	.db #0x5a	; 90	'Z'
	.db #0x00	; 0
	.db #0x00	; 0
	.db #0x5a	; 90	'Z'
	.db #0x00	; 0
	.db #0x00	; 0
	.db #0x16	; 22
	.db #0xc0	; 192
	.db #0x00	; 0
	.db #0x5a	; 90	'Z'
	.db #0x00	; 0
	.db #0x00	; 0
	.db #0x5a	; 90	'Z'
	.db #0x00	; 0
	.db #0x00	; 0
	.db #0x5a	; 90	'Z'
	.db #0x00	; 0
	.db #0x00	; 0
	.db #0x5a	; 90	'Z'
	.db #0x00	; 0
	.db #0x00	; 0
	.db #0x5a	; 90	'Z'
	.db #0x00	; 0
	.db #0x00	; 0
	.db #0x5a	; 90	'Z'
	.db #0x00	; 0
	.db #0x00	; 0
	.db #0x5a	; 90	'Z'
	.db #0x00	; 0
	.db #0x00	; 0
	.db #0x17	; 23
	.db #0x10	; 16
	.db #0x00	; 0
	.db #0x5a	; 90	'Z'
	.db #0x00	; 0
	.db #0x00	; 0
	.db #0x5a	; 90	'Z'
	.db #0x00	; 0
	.db #0x00	; 0
	.db #0x5a	; 90	'Z'
	.db #0x00	; 0
	.db #0x00	; 0
	.db #0x5a	; 90	'Z'
	.db #0x00	; 0
	.db #0x00	; 0
	.db #0x5a	; 90	'Z'
	.db #0x00	; 0
	.db #0x00	; 0
	.db #0x5a	; 90	'Z'
	.db #0x00	; 0
	.db #0x00	; 0
	.db #0x5a	; 90	'Z'
	.db #0x00	; 0
	.db #0x00	; 0
	.db #0x5a	; 90	'Z'
	.db #0x00	; 0
	.db #0x00	; 0
	.db #0x5a	; 90	'Z'
	.db #0x00	; 0
	.db #0x00	; 0
	.db #0x5a	; 90	'Z'
	.db #0x00	; 0
	.db #0x00	; 0
	.db #0x5a	; 90	'Z'
	.db #0x00	; 0
	.db #0x00	; 0
	.db #0x5a	; 90	'Z'
	.db #0x00	; 0
	.db #0x00	; 0
	.db #0x5a	; 90	'Z'
	.db #0x00	; 0
	.db #0x00	; 0
	.db #0x5a	; 90	'Z'
	.db #0x00	; 0
	.db #0x00	; 0
	.db #0x5a	; 90	'Z'
	.db #0x00	; 0
	.db #0x00	; 0
	.db #0x5a	; 90	'Z'
	.db #0x00	; 0
	.db #0x00	; 0
	.db #0x5a	; 90	'Z'
	.db #0x00	; 0
	.db #0x00	; 0
	.db #0x5a	; 90	'Z'
	.db #0x00	; 0
	.db #0x00	; 0
	.db #0x5a	; 90	'Z'
	.db #0x00	; 0
	.db #0x00	; 0
	.db #0x5a	; 90	'Z'
	.db #0x00	; 0
	.db #0x00	; 0
	.db #0x5a	; 90	'Z'
	.db #0x00	; 0
	.db #0x00	; 0
	.db #0x5a	; 90	'Z'
	.db #0x00	; 0
	.db #0x00	; 0
	.db #0x5a	; 90	'Z'
	.db #0x00	; 0
	.db #0x00	; 0
_P10:
	.db #0x5a	; 90	'Z'
	.db #0x0e	; 14
	.db #0x01	; 1
	.db #0x5a	; 90	'Z'
	.db #0x00	; 0
	.db #0x00	; 0
	.db #0x5a	; 90	'Z'
	.db #0x00	; 0
	.db #0x00	; 0
	.db #0x5a	; 90	'Z'
	.db #0x00	; 0
	.db #0x00	; 0
	.db #0x5a	; 90	'Z'
	.db #0x00	; 0
	.db #0x00	; 0
	.db #0x5a	; 90	'Z'
	.db #0x00	; 0
	.db #0x00	; 0
	.db #0x5a	; 90	'Z'
	.db #0x00	; 0
	.db #0x00	; 0
	.db #0x5a	; 90	'Z'
	.db #0x00	; 0
	.db #0x00	; 0
	.db #0x08	; 8
	.db #0x10	; 16
	.db #0x00	; 0
	.db #0x5a	; 90	'Z'
	.db #0x00	; 0
	.db #0x00	; 0
	.db #0x5a	; 90	'Z'
	.db #0x00	; 0
	.db #0x00	; 0
	.db #0x5a	; 90	'Z'
	.db #0x00	; 0
	.db #0x00	; 0
	.db #0x5a	; 90	'Z'
	.db #0x00	; 0
	.db #0x00	; 0
	.db #0x5a	; 90	'Z'
	.db #0x00	; 0
	.db #0x00	; 0
	.db #0x5a	; 90	'Z'
	.db #0x00	; 0
	.db #0x00	; 0
	.db #0x5a	; 90	'Z'
	.db #0x00	; 0
	.db #0x00	; 0
	.db #0x5a	; 90	'Z'
	.db #0x00	; 0
	.db #0x00	; 0
	.db #0x5a	; 90	'Z'
	.db #0x00	; 0
	.db #0x00	; 0
	.db #0x5a	; 90	'Z'
	.db #0x00	; 0
	.db #0x00	; 0
	.db #0x5a	; 90	'Z'
	.db #0x00	; 0
	.db #0x00	; 0
	.db #0x5a	; 90	'Z'
	.db #0x00	; 0
	.db #0x00	; 0
	.db #0x5a	; 90	'Z'
	.db #0x00	; 0
	.db #0x00	; 0
	.db #0x5a	; 90	'Z'
	.db #0x00	; 0
	.db #0x00	; 0
	.db #0x5a	; 90	'Z'
	.db #0x00	; 0
	.db #0x00	; 0
	.db #0x1c	; 28
	.db #0x10	; 16
	.db #0x00	; 0
	.db #0x5a	; 90	'Z'
	.db #0x00	; 0
	.db #0x00	; 0
	.db #0x5a	; 90	'Z'
	.db #0x00	; 0
	.db #0x00	; 0
	.db #0x5a	; 90	'Z'
	.db #0x00	; 0
	.db #0x00	; 0
	.db #0x5a	; 90	'Z'
	.db #0x00	; 0
	.db #0x00	; 0
	.db #0x5a	; 90	'Z'
	.db #0x00	; 0
	.db #0x00	; 0
	.db #0x5a	; 90	'Z'
	.db #0x00	; 0
	.db #0x00	; 0
	.db #0x5a	; 90	'Z'
	.db #0x00	; 0
	.db #0x00	; 0
	.db #0x5a	; 90	'Z'
	.db #0x00	; 0
	.db #0x00	; 0
	.db #0x5a	; 90	'Z'
	.db #0x00	; 0
	.db #0x00	; 0
	.db #0x5a	; 90	'Z'
	.db #0x00	; 0
	.db #0x00	; 0
	.db #0x5a	; 90	'Z'
	.db #0x00	; 0
	.db #0x00	; 0
	.db #0x5a	; 90	'Z'
	.db #0x00	; 0
	.db #0x00	; 0
	.db #0x5a	; 90	'Z'
	.db #0x00	; 0
	.db #0x00	; 0
	.db #0x5a	; 90	'Z'
	.db #0x0e	; 14
	.db #0x01	; 1
	.db #0x5a	; 90	'Z'
	.db #0x00	; 0
	.db #0x00	; 0
	.db #0x08	; 8
	.db #0x10	; 16
	.db #0x00	; 0
	.db #0x5a	; 90	'Z'
	.db #0x00	; 0
	.db #0x00	; 0
	.db #0x5a	; 90	'Z'
	.db #0x00	; 0
	.db #0x00	; 0
	.db #0x5a	; 90	'Z'
	.db #0x00	; 0
	.db #0x00	; 0
	.db #0x5a	; 90	'Z'
	.db #0x00	; 0
	.db #0x00	; 0
	.db #0x5a	; 90	'Z'
	.db #0x00	; 0
	.db #0x00	; 0
	.db #0x5a	; 90	'Z'
	.db #0x00	; 0
	.db #0x00	; 0
	.db #0x5a	; 90	'Z'
	.db #0x00	; 0
	.db #0x00	; 0
	.db #0x5a	; 90	'Z'
	.db #0x00	; 0
	.db #0x00	; 0
	.db #0x5a	; 90	'Z'
	.db #0x00	; 0
	.db #0x00	; 0
	.db #0x5a	; 90	'Z'
	.db #0x00	; 0
	.db #0x00	; 0
	.db #0x5a	; 90	'Z'
	.db #0x00	; 0
	.db #0x00	; 0
	.db #0x5a	; 90	'Z'
	.db #0x00	; 0
	.db #0x00	; 0
	.db #0x5a	; 90	'Z'
	.db #0x00	; 0
	.db #0x00	; 0
	.db #0x5a	; 90	'Z'
	.db #0x00	; 0
	.db #0x00	; 0
	.db #0x5a	; 90	'Z'
	.db #0x00	; 0
	.db #0x00	; 0
	.db #0x04	; 4
	.db #0x10	; 16
	.db #0x00	; 0
	.db #0x5a	; 90	'Z'
	.db #0x00	; 0
	.db #0x00	; 0
	.db #0x5a	; 90	'Z'
	.db #0x00	; 0
	.db #0x00	; 0
	.db #0x5a	; 90	'Z'
	.db #0x00	; 0
	.db #0x00	; 0
	.db #0x5a	; 90	'Z'
	.db #0x00	; 0
	.db #0x00	; 0
	.db #0x5a	; 90	'Z'
	.db #0x00	; 0
	.db #0x00	; 0
	.db #0x5a	; 90	'Z'
	.db #0x00	; 0
	.db #0x00	; 0
	.db #0x5a	; 90	'Z'
	.db #0x00	; 0
	.db #0x00	; 0
_P11:
	.db #0x5a	; 90	'Z'
	.db #0x0e	; 14
	.db #0x01	; 1
	.db #0x5a	; 90	'Z'
	.db #0x00	; 0
	.db #0x00	; 0
	.db #0x3e	; 62
	.db #0x10	; 16
	.db #0x00	; 0
	.db #0x5a	; 90	'Z'
	.db #0x00	; 0
	.db #0x00	; 0
	.db #0x5a	; 90	'Z'
	.db #0x00	; 0
	.db #0x00	; 0
	.db #0x5a	; 90	'Z'
	.db #0x00	; 0
	.db #0x00	; 0
	.db #0x3e	; 62
	.db #0x10	; 16
	.db #0x00	; 0
	.db #0x5a	; 90	'Z'
	.db #0x00	; 0
	.db #0x00	; 0
	.db #0x5a	; 90	'Z'
	.db #0x00	; 0
	.db #0x00	; 0
	.db #0x5a	; 90	'Z'
	.db #0x00	; 0
	.db #0x00	; 0
	.db #0x3e	; 62
	.db #0x10	; 16
	.db #0x00	; 0
	.db #0x5a	; 90	'Z'
	.db #0x00	; 0
	.db #0x00	; 0
	.db #0x3e	; 62
	.db #0x10	; 16
	.db #0x00	; 0
	.db #0x5a	; 90	'Z'
	.db #0x00	; 0
	.db #0x00	; 0
	.db #0x3e	; 62
	.db #0x10	; 16
	.db #0x00	; 0
	.db #0x5a	; 90	'Z'
	.db #0x00	; 0
	.db #0x00	; 0
	.db #0x5a	; 90	'Z'
	.db #0x00	; 0
	.db #0x00	; 0
	.db #0x5a	; 90	'Z'
	.db #0x00	; 0
	.db #0x00	; 0
	.db #0x3e	; 62
	.db #0x10	; 16
	.db #0x00	; 0
	.db #0x5a	; 90	'Z'
	.db #0x00	; 0
	.db #0x00	; 0
	.db #0x5a	; 90	'Z'
	.db #0x00	; 0
	.db #0x00	; 0
	.db #0x5a	; 90	'Z'
	.db #0x00	; 0
	.db #0x00	; 0
	.db #0x3e	; 62
	.db #0x10	; 16
	.db #0x00	; 0
	.db #0x5a	; 90	'Z'
	.db #0x00	; 0
	.db #0x00	; 0
	.db #0x5a	; 90	'Z'
	.db #0x00	; 0
	.db #0x00	; 0
	.db #0x5a	; 90	'Z'
	.db #0x00	; 0
	.db #0x00	; 0
	.db #0x3e	; 62
	.db #0x10	; 16
	.db #0x00	; 0
	.db #0x5a	; 90	'Z'
	.db #0x00	; 0
	.db #0x00	; 0
	.db #0x5a	; 90	'Z'
	.db #0x00	; 0
	.db #0x00	; 0
	.db #0x5a	; 90	'Z'
	.db #0x00	; 0
	.db #0x00	; 0
	.db #0x3e	; 62
	.db #0x10	; 16
	.db #0x00	; 0
	.db #0x5a	; 90	'Z'
	.db #0x00	; 0
	.db #0x00	; 0
	.db #0x35	; 53	'5'
	.db #0x20	; 32
	.db #0x00	; 0
	.db #0x5a	; 90	'Z'
	.db #0x00	; 0
	.db #0x00	; 0
	.db #0x3e	; 62
	.db #0x10	; 16
	.db #0x00	; 0
	.db #0x5a	; 90	'Z'
	.db #0x00	; 0
	.db #0x00	; 0
	.db #0x3e	; 62
	.db #0x10	; 16
	.db #0x00	; 0
	.db #0x5a	; 90	'Z'
	.db #0x00	; 0
	.db #0x00	; 0
	.db #0x3e	; 62
	.db #0x10	; 16
	.db #0x00	; 0
	.db #0x5a	; 90	'Z'
	.db #0x00	; 0
	.db #0x00	; 0
	.db #0x5a	; 90	'Z'
	.db #0x00	; 0
	.db #0x00	; 0
	.db #0x5a	; 90	'Z'
	.db #0x00	; 0
	.db #0x00	; 0
	.db #0x3e	; 62
	.db #0x10	; 16
	.db #0x00	; 0
	.db #0x5a	; 90	'Z'
	.db #0x00	; 0
	.db #0x00	; 0
	.db #0x5a	; 90	'Z'
	.db #0x00	; 0
	.db #0x00	; 0
	.db #0x5a	; 90	'Z'
	.db #0x00	; 0
	.db #0x00	; 0
	.db #0x3e	; 62
	.db #0x10	; 16
	.db #0x00	; 0
	.db #0x5a	; 90	'Z'
	.db #0x00	; 0
	.db #0x00	; 0
	.db #0x5a	; 90	'Z'
	.db #0x00	; 0
	.db #0x00	; 0
	.db #0x5a	; 90	'Z'
	.db #0x00	; 0
	.db #0x00	; 0
	.db #0x3e	; 62
	.db #0x10	; 16
	.db #0x00	; 0
	.db #0x5a	; 90	'Z'
	.db #0x00	; 0
	.db #0x00	; 0
	.db #0x5a	; 90	'Z'
	.db #0x00	; 0
	.db #0x00	; 0
	.db #0x5a	; 90	'Z'
	.db #0x00	; 0
	.db #0x00	; 0
	.db #0x3e	; 62
	.db #0x10	; 16
	.db #0x00	; 0
	.db #0x5a	; 90	'Z'
	.db #0x00	; 0
	.db #0x00	; 0
	.db #0x5a	; 90	'Z'
	.db #0x00	; 0
	.db #0x00	; 0
	.db #0x5a	; 90	'Z'
	.db #0x00	; 0
	.db #0x00	; 0
	.db #0x3e	; 62
	.db #0x10	; 16
	.db #0x00	; 0
	.db #0x5a	; 90	'Z'
	.db #0x00	; 0
	.db #0x00	; 0
	.db #0x5a	; 90	'Z'
	.db #0x00	; 0
	.db #0x00	; 0
	.db #0x5a	; 90	'Z'
	.db #0x00	; 0
	.db #0x00	; 0
	.db #0x3e	; 62
	.db #0x10	; 16
	.db #0x00	; 0
	.db #0x5a	; 90	'Z'
	.db #0x00	; 0
	.db #0x00	; 0
_P13:
	.db #0x1d	; 29
	.db #0x10	; 16
	.db #0x00	; 0
	.db #0x5a	; 90	'Z'
	.db #0x00	; 0
	.db #0x00	; 0
	.db #0x1b	; 27
	.db #0x10	; 16
	.db #0x00	; 0
	.db #0x5a	; 90	'Z'
	.db #0x00	; 0
	.db #0x00	; 0
	.db #0x1a	; 26
	.db #0x10	; 16
	.db #0x00	; 0
	.db #0x5a	; 90	'Z'
	.db #0x00	; 0
	.db #0x00	; 0
	.db #0x16	; 22
	.db #0x10	; 16
	.db #0x00	; 0
	.db #0x5a	; 90	'Z'
	.db #0x00	; 0
	.db #0x00	; 0
	.db #0x17	; 23
	.db #0x10	; 16
	.db #0x00	; 0
	.db #0x5a	; 90	'Z'
	.db #0x00	; 0
	.db #0x00	; 0
	.db #0x5a	; 90	'Z'
	.db #0x00	; 0
	.db #0x00	; 0
	.db #0x5a	; 90	'Z'
	.db #0x00	; 0
	.db #0x00	; 0
	.db #0x5a	; 90	'Z'
	.db #0x00	; 0
	.db #0x00	; 0
	.db #0x5a	; 90	'Z'
	.db #0x00	; 0
	.db #0x00	; 0
	.db #0x5a	; 90	'Z'
	.db #0x00	; 0
	.db #0x00	; 0
	.db #0x5a	; 90	'Z'
	.db #0x00	; 0
	.db #0x00	; 0
	.db #0x5a	; 90	'Z'
	.db #0x00	; 0
	.db #0x00	; 0
	.db #0x5a	; 90	'Z'
	.db #0x00	; 0
	.db #0x00	; 0
	.db #0x5a	; 90	'Z'
	.db #0x00	; 0
	.db #0x00	; 0
	.db #0x5a	; 90	'Z'
	.db #0x00	; 0
	.db #0x00	; 0
	.db #0x5a	; 90	'Z'
	.db #0x00	; 0
	.db #0x00	; 0
	.db #0x5a	; 90	'Z'
	.db #0x00	; 0
	.db #0x00	; 0
	.db #0x5a	; 90	'Z'
	.db #0x00	; 0
	.db #0x00	; 0
	.db #0x5a	; 90	'Z'
	.db #0x00	; 0
	.db #0x00	; 0
	.db #0x5a	; 90	'Z'
	.db #0x00	; 0
	.db #0x00	; 0
	.db #0x5a	; 90	'Z'
	.db #0x00	; 0
	.db #0x00	; 0
	.db #0x5a	; 90	'Z'
	.db #0x00	; 0
	.db #0x00	; 0
	.db #0x5a	; 90	'Z'
	.db #0x00	; 0
	.db #0x00	; 0
	.db #0x5a	; 90	'Z'
	.db #0x00	; 0
	.db #0x00	; 0
	.db #0x5a	; 90	'Z'
	.db #0x00	; 0
	.db #0x00	; 0
	.db #0x5a	; 90	'Z'
	.db #0x00	; 0
	.db #0x00	; 0
	.db #0x5a	; 90	'Z'
	.db #0x00	; 0
	.db #0x00	; 0
	.db #0x5a	; 90	'Z'
	.db #0x00	; 0
	.db #0x00	; 0
	.db #0x5a	; 90	'Z'
	.db #0x00	; 0
	.db #0x00	; 0
	.db #0x5a	; 90	'Z'
	.db #0x00	; 0
	.db #0x00	; 0
	.db #0x5a	; 90	'Z'
	.db #0x00	; 0
	.db #0x00	; 0
	.db #0x17	; 23
	.db #0x10	; 16
	.db #0x00	; 0
	.db #0x5a	; 90	'Z'
	.db #0x00	; 0
	.db #0x00	; 0
	.db #0x5a	; 90	'Z'
	.db #0x00	; 0
	.db #0x00	; 0
	.db #0x5a	; 90	'Z'
	.db #0x00	; 0
	.db #0x00	; 0
	.db #0x5a	; 90	'Z'
	.db #0x00	; 0
	.db #0x00	; 0
	.db #0x5a	; 90	'Z'
	.db #0x00	; 0
	.db #0x00	; 0
	.db #0x5a	; 90	'Z'
	.db #0x00	; 0
	.db #0x00	; 0
	.db #0x5a	; 90	'Z'
	.db #0x00	; 0
	.db #0x00	; 0
	.db #0x5a	; 90	'Z'
	.db #0x00	; 0
	.db #0x00	; 0
	.db #0x5a	; 90	'Z'
	.db #0x00	; 0
	.db #0x00	; 0
	.db #0x5a	; 90	'Z'
	.db #0x00	; 0
	.db #0x00	; 0
	.db #0x5a	; 90	'Z'
	.db #0x00	; 0
	.db #0x00	; 0
	.db #0x5a	; 90	'Z'
	.db #0x00	; 0
	.db #0x00	; 0
	.db #0x5a	; 90	'Z'
	.db #0x00	; 0
	.db #0x00	; 0
	.db #0x5a	; 90	'Z'
	.db #0x00	; 0
	.db #0x00	; 0
	.db #0x5a	; 90	'Z'
	.db #0x00	; 0
	.db #0x00	; 0
	.db #0x5a	; 90	'Z'
	.db #0x00	; 0
	.db #0x00	; 0
	.db #0x5a	; 90	'Z'
	.db #0x00	; 0
	.db #0x00	; 0
	.db #0x5a	; 90	'Z'
	.db #0x00	; 0
	.db #0x00	; 0
	.db #0x5a	; 90	'Z'
	.db #0x00	; 0
	.db #0x00	; 0
	.db #0x5a	; 90	'Z'
	.db #0x00	; 0
	.db #0x00	; 0
	.db #0x5a	; 90	'Z'
	.db #0x00	; 0
	.db #0x00	; 0
	.db #0x5a	; 90	'Z'
	.db #0x00	; 0
	.db #0x00	; 0
	.db #0x5a	; 90	'Z'
	.db #0x00	; 0
	.db #0x00	; 0
	.db #0x5a	; 90	'Z'
	.db #0x00	; 0
	.db #0x00	; 0
	.db #0x5a	; 90	'Z'
	.db #0x00	; 0
	.db #0x00	; 0
	.db #0x5a	; 90	'Z'
	.db #0x00	; 0
	.db #0x00	; 0
	.db #0x5a	; 90	'Z'
	.db #0x00	; 0
	.db #0x00	; 0
_P14:
	.db #0x20	; 32
	.db #0x10	; 16
	.db #0x00	; 0
	.db #0x5a	; 90	'Z'
	.db #0x00	; 0
	.db #0x00	; 0
	.db #0x1e	; 30
	.db #0x10	; 16
	.db #0x00	; 0
	.db #0x5a	; 90	'Z'
	.db #0x00	; 0
	.db #0x00	; 0
	.db #0x1d	; 29
	.db #0x10	; 16
	.db #0x00	; 0
	.db #0x5a	; 90	'Z'
	.db #0x00	; 0
	.db #0x00	; 0
	.db #0x1a	; 26
	.db #0x10	; 16
	.db #0x00	; 0
	.db #0x5a	; 90	'Z'
	.db #0x00	; 0
	.db #0x00	; 0
	.db #0x1b	; 27
	.db #0x10	; 16
	.db #0x00	; 0
	.db #0x5a	; 90	'Z'
	.db #0x00	; 0
	.db #0x00	; 0
	.db #0x5a	; 90	'Z'
	.db #0x00	; 0
	.db #0x00	; 0
	.db #0x5a	; 90	'Z'
	.db #0x00	; 0
	.db #0x00	; 0
	.db #0x5a	; 90	'Z'
	.db #0x00	; 0
	.db #0x00	; 0
	.db #0x5a	; 90	'Z'
	.db #0x00	; 0
	.db #0x00	; 0
	.db #0x5a	; 90	'Z'
	.db #0x00	; 0
	.db #0x00	; 0
	.db #0x5a	; 90	'Z'
	.db #0x00	; 0
	.db #0x00	; 0
	.db #0x5a	; 90	'Z'
	.db #0x00	; 0
	.db #0x00	; 0
	.db #0x5a	; 90	'Z'
	.db #0x00	; 0
	.db #0x00	; 0
	.db #0x16	; 22
	.db #0x10	; 16
	.db #0x00	; 0
	.db #0x5a	; 90	'Z'
	.db #0x00	; 0
	.db #0x00	; 0
	.db #0x17	; 23
	.db #0x10	; 16
	.db #0x00	; 0
	.db #0x5a	; 90	'Z'
	.db #0x00	; 0
	.db #0x00	; 0
	.db #0x13	; 19
	.db #0x10	; 16
	.db #0x00	; 0
	.db #0x5a	; 90	'Z'
	.db #0x00	; 0
	.db #0x00	; 0
	.db #0x14	; 20
	.db #0x10	; 16
	.db #0x00	; 0
	.db #0x5a	; 90	'Z'
	.db #0x00	; 0
	.db #0x00	; 0
	.db #0x5a	; 90	'Z'
	.db #0x00	; 0
	.db #0x00	; 0
	.db #0x5a	; 90	'Z'
	.db #0x00	; 0
	.db #0x00	; 0
	.db #0x5a	; 90	'Z'
	.db #0x00	; 0
	.db #0x00	; 0
	.db #0x5a	; 90	'Z'
	.db #0x00	; 0
	.db #0x00	; 0
	.db #0x5a	; 90	'Z'
	.db #0x00	; 0
	.db #0x00	; 0
	.db #0x5a	; 90	'Z'
	.db #0x00	; 0
	.db #0x00	; 0
	.db #0x5a	; 90	'Z'
	.db #0x00	; 0
	.db #0x00	; 0
	.db #0x5a	; 90	'Z'
	.db #0x00	; 0
	.db #0x00	; 0
	.db #0x16	; 22
	.db #0x10	; 16
	.db #0x00	; 0
	.db #0x5a	; 90	'Z'
	.db #0x00	; 0
	.db #0x00	; 0
	.db #0x17	; 23
	.db #0x10	; 16
	.db #0x00	; 0
	.db #0x5a	; 90	'Z'
	.db #0x00	; 0
	.db #0x00	; 0
	.db #0x0f	; 15
	.db #0x10	; 16
	.db #0x00	; 0
	.db #0x5a	; 90	'Z'
	.db #0x00	; 0
	.db #0x00	; 0
	.db #0x1b	; 27
	.db #0x10	; 16
	.db #0x00	; 0
	.db #0x5a	; 90	'Z'
	.db #0x00	; 0
	.db #0x00	; 0
	.db #0x5a	; 90	'Z'
	.db #0x00	; 0
	.db #0x00	; 0
	.db #0x5a	; 90	'Z'
	.db #0x00	; 0
	.db #0x00	; 0
	.db #0x5a	; 90	'Z'
	.db #0x00	; 0
	.db #0x00	; 0
	.db #0x5a	; 90	'Z'
	.db #0x00	; 0
	.db #0x00	; 0
	.db #0x5a	; 90	'Z'
	.db #0x00	; 0
	.db #0x00	; 0
	.db #0x5a	; 90	'Z'
	.db #0x00	; 0
	.db #0x00	; 0
	.db #0x5a	; 90	'Z'
	.db #0x00	; 0
	.db #0x00	; 0
	.db #0x5a	; 90	'Z'
	.db #0x00	; 0
	.db #0x00	; 0
	.db #0x16	; 22
	.db #0x10	; 16
	.db #0x00	; 0
	.db #0x5a	; 90	'Z'
	.db #0x00	; 0
	.db #0x00	; 0
	.db #0x17	; 23
	.db #0x10	; 16
	.db #0x00	; 0
	.db #0x5a	; 90	'Z'
	.db #0x00	; 0
	.db #0x00	; 0
	.db #0x13	; 19
	.db #0x10	; 16
	.db #0x00	; 0
	.db #0x5a	; 90	'Z'
	.db #0x00	; 0
	.db #0x00	; 0
	.db #0x14	; 20
	.db #0x10	; 16
	.db #0x00	; 0
	.db #0x5a	; 90	'Z'
	.db #0x00	; 0
	.db #0x00	; 0
	.db #0x5a	; 90	'Z'
	.db #0x00	; 0
	.db #0x00	; 0
	.db #0x5a	; 90	'Z'
	.db #0x00	; 0
	.db #0x00	; 0
	.db #0x5a	; 90	'Z'
	.db #0x00	; 0
	.db #0x00	; 0
	.db #0x5a	; 90	'Z'
	.db #0x00	; 0
	.db #0x00	; 0
	.db #0x5a	; 90	'Z'
	.db #0x00	; 0
	.db #0x00	; 0
	.db #0x5a	; 90	'Z'
	.db #0x00	; 0
	.db #0x00	; 0
_P19:
	.db #0x16	; 22
	.db #0x10	; 16
	.db #0x00	; 0
	.db #0x5a	; 90	'Z'
	.db #0x00	; 0
	.db #0x00	; 0
	.db #0x14	; 20
	.db #0x10	; 16
	.db #0x00	; 0
	.db #0x5a	; 90	'Z'
	.db #0x00	; 0
	.db #0x00	; 0
	.db #0x17	; 23
	.db #0x10	; 16
	.db #0x00	; 0
	.db #0x5a	; 90	'Z'
	.db #0x00	; 0
	.db #0x00	; 0
	.db #0x19	; 25
	.db #0x10	; 16
	.db #0x00	; 0
	.db #0x5a	; 90	'Z'
	.db #0x00	; 0
	.db #0x00	; 0
	.db #0x1b	; 27
	.db #0x10	; 16
	.db #0x00	; 0
	.db #0x5a	; 90	'Z'
	.db #0x00	; 0
	.db #0x00	; 0
	.db #0x5a	; 90	'Z'
	.db #0x00	; 0
	.db #0x00	; 0
	.db #0x5a	; 90	'Z'
	.db #0x00	; 0
	.db #0x00	; 0
	.db #0x12	; 18
	.db #0x10	; 16
	.db #0x00	; 0
	.db #0x5a	; 90	'Z'
	.db #0x00	; 0
	.db #0x00	; 0
	.db #0x5a	; 90	'Z'
	.db #0x00	; 0
	.db #0x00	; 0
	.db #0x5a	; 90	'Z'
	.db #0x00	; 0
	.db #0x00	; 0
	.db #0x5a	; 90	'Z'
	.db #0x00	; 0
	.db #0x00	; 0
	.db #0x5a	; 90	'Z'
	.db #0x00	; 0
	.db #0x00	; 0
	.db #0x5a	; 90	'Z'
	.db #0x00	; 0
	.db #0x00	; 0
	.db #0x5a	; 90	'Z'
	.db #0x00	; 0
	.db #0x00	; 0
	.db #0x5a	; 90	'Z'
	.db #0x00	; 0
	.db #0x00	; 0
	.db #0x5a	; 90	'Z'
	.db #0x00	; 0
	.db #0x00	; 0
	.db #0x5a	; 90	'Z'
	.db #0x00	; 0
	.db #0x00	; 0
	.db #0x5a	; 90	'Z'
	.db #0x00	; 0
	.db #0x00	; 0
	.db #0x10	; 16
	.db #0x10	; 16
	.db #0x00	; 0
	.db #0x5a	; 90	'Z'
	.db #0x00	; 0
	.db #0x00	; 0
	.db #0x5a	; 90	'Z'
	.db #0x00	; 0
	.db #0x00	; 0
	.db #0x5a	; 90	'Z'
	.db #0x00	; 0
	.db #0x00	; 0
	.db #0x5a	; 90	'Z'
	.db #0x00	; 0
	.db #0x00	; 0
	.db #0x5a	; 90	'Z'
	.db #0x00	; 0
	.db #0x00	; 0
	.db #0x12	; 18
	.db #0x10	; 16
	.db #0x00	; 0
	.db #0x5a	; 90	'Z'
	.db #0x00	; 0
	.db #0x00	; 0
	.db #0x1e	; 30
	.db #0x10	; 16
	.db #0x00	; 0
	.db #0x5a	; 90	'Z'
	.db #0x00	; 0
	.db #0x00	; 0
	.db #0x1c	; 28
	.db #0x10	; 16
	.db #0x00	; 0
	.db #0x5a	; 90	'Z'
	.db #0x00	; 0
	.db #0x00	; 0
	.db #0x1b	; 27
	.db #0x10	; 16
	.db #0x00	; 0
	.db #0x5a	; 90	'Z'
	.db #0x00	; 0
	.db #0x00	; 0
	.db #0x19	; 25
	.db #0x10	; 16
	.db #0x00	; 0
	.db #0x5a	; 90	'Z'
	.db #0x00	; 0
	.db #0x00	; 0
	.db #0x17	; 23
	.db #0x10	; 16
	.db #0x00	; 0
	.db #0x19	; 25
	.db #0x10	; 16
	.db #0x00	; 0
	.db #0x1b	; 27
	.db #0x10	; 16
	.db #0x00	; 0
	.db #0x5a	; 90	'Z'
	.db #0x00	; 0
	.db #0x00	; 0
	.db #0x5a	; 90	'Z'
	.db #0x00	; 0
	.db #0x00	; 0
	.db #0x5a	; 90	'Z'
	.db #0x00	; 0
	.db #0x00	; 0
	.db #0x16	; 22
	.db #0x10	; 16
	.db #0x00	; 0
	.db #0x17	; 23
	.db #0x10	; 16
	.db #0x00	; 0
	.db #0x19	; 25
	.db #0x10	; 16
	.db #0x00	; 0
	.db #0x5a	; 90	'Z'
	.db #0x00	; 0
	.db #0x00	; 0
	.db #0x12	; 18
	.db #0x10	; 16
	.db #0x00	; 0
	.db #0x14	; 20
	.db #0x10	; 16
	.db #0x00	; 0
	.db #0x16	; 22
	.db #0x10	; 16
	.db #0x00	; 0
	.db #0x5a	; 90	'Z'
	.db #0x00	; 0
	.db #0x00	; 0
	.db #0x5a	; 90	'Z'
	.db #0x00	; 0
	.db #0x00	; 0
	.db #0x5a	; 90	'Z'
	.db #0x00	; 0
	.db #0x00	; 0
	.db #0x0a	; 10
	.db #0x10	; 16
	.db #0x00	; 0
	.db #0x5a	; 90	'Z'
	.db #0x00	; 0
	.db #0x00	; 0
	.db #0x5a	; 90	'Z'
	.db #0x00	; 0
	.db #0x00	; 0
	.db #0x5a	; 90	'Z'
	.db #0x00	; 0
	.db #0x00	; 0
	.db #0x5a	; 90	'Z'
	.db #0x00	; 0
	.db #0x00	; 0
	.db #0x5a	; 90	'Z'
	.db #0x00	; 0
	.db #0x00	; 0
	.db #0x0b	; 11
	.db #0x10	; 16
	.db #0x00	; 0
	.db #0x5a	; 90	'Z'
	.db #0x00	; 0
	.db #0x00	; 0
_P20:
	.db #0x0d	; 13
	.db #0x10	; 16
	.db #0x00	; 0
	.db #0x5a	; 90	'Z'
	.db #0x00	; 0
	.db #0x00	; 0
	.db #0x5a	; 90	'Z'
	.db #0x0e	; 14
	.db #0x01	; 1
	.db #0x5a	; 90	'Z'
	.db #0x00	; 0
	.db #0x00	; 0
	.db #0x5a	; 90	'Z'
	.db #0x00	; 0
	.db #0x00	; 0
	.db #0x5a	; 90	'Z'
	.db #0x00	; 0
	.db #0x00	; 0
	.db #0x5a	; 90	'Z'
	.db #0x00	; 0
	.db #0x00	; 0
	.db #0x5a	; 90	'Z'
	.db #0x00	; 0
	.db #0x00	; 0
	.db #0x0b	; 11
	.db #0x10	; 16
	.db #0x00	; 0
	.db #0x5a	; 90	'Z'
	.db #0x00	; 0
	.db #0x00	; 0
	.db #0x5a	; 90	'Z'
	.db #0x00	; 0
	.db #0x00	; 0
	.db #0x5a	; 90	'Z'
	.db #0x00	; 0
	.db #0x00	; 0
	.db #0x5a	; 90	'Z'
	.db #0x00	; 0
	.db #0x00	; 0
	.db #0x5a	; 90	'Z'
	.db #0x00	; 0
	.db #0x00	; 0
	.db #0x5a	; 90	'Z'
	.db #0x00	; 0
	.db #0x00	; 0
	.db #0x5a	; 90	'Z'
	.db #0x00	; 0
	.db #0x00	; 0
	.db #0x5a	; 90	'Z'
	.db #0x00	; 0
	.db #0x00	; 0
	.db #0x5a	; 90	'Z'
	.db #0x00	; 0
	.db #0x00	; 0
	.db #0x0f	; 15
	.db #0x10	; 16
	.db #0x00	; 0
	.db #0x5a	; 90	'Z'
	.db #0x00	; 0
	.db #0x00	; 0
	.db #0x06	; 6
	.db #0x10	; 16
	.db #0x00	; 0
	.db #0x5a	; 90	'Z'
	.db #0x00	; 0
	.db #0x00	; 0
	.db #0x0b	; 11
	.db #0x10	; 16
	.db #0x00	; 0
	.db #0x5a	; 90	'Z'
	.db #0x00	; 0
	.db #0x00	; 0
	.db #0x16	; 22
	.db #0x10	; 16
	.db #0x00	; 0
	.db #0x5a	; 90	'Z'
	.db #0x00	; 0
	.db #0x00	; 0
	.db #0x5a	; 90	'Z'
	.db #0x00	; 0
	.db #0x00	; 0
	.db #0x5a	; 90	'Z'
	.db #0x00	; 0
	.db #0x00	; 0
	.db #0x5a	; 90	'Z'
	.db #0x00	; 0
	.db #0x00	; 0
	.db #0x5a	; 90	'Z'
	.db #0x00	; 0
	.db #0x00	; 0
	.db #0x5a	; 90	'Z'
	.db #0x00	; 0
	.db #0x00	; 0
	.db #0x5a	; 90	'Z'
	.db #0x00	; 0
	.db #0x00	; 0
	.db #0x5a	; 90	'Z'
	.db #0x00	; 0
	.db #0x00	; 0
	.db #0x5a	; 90	'Z'
	.db #0x00	; 0
	.db #0x00	; 0
	.db #0x5a	; 90	'Z'
	.db #0x00	; 0
	.db #0x00	; 0
	.db #0x5a	; 90	'Z'
	.db #0x00	; 0
	.db #0x00	; 0
	.db #0x5a	; 90	'Z'
	.db #0x00	; 0
	.db #0x00	; 0
	.db #0x5a	; 90	'Z'
	.db #0x00	; 0
	.db #0x00	; 0
	.db #0x5a	; 90	'Z'
	.db #0x00	; 0
	.db #0x00	; 0
	.db #0x5a	; 90	'Z'
	.db #0x00	; 0
	.db #0x00	; 0
	.db #0x14	; 20
	.db #0x10	; 16
	.db #0x00	; 0
	.db #0x5a	; 90	'Z'
	.db #0x00	; 0
	.db #0x00	; 0
	.db #0x5a	; 90	'Z'
	.db #0x00	; 0
	.db #0x00	; 0
	.db #0x5a	; 90	'Z'
	.db #0x00	; 0
	.db #0x00	; 0
	.db #0x5a	; 90	'Z'
	.db #0x00	; 0
	.db #0x00	; 0
	.db #0x5a	; 90	'Z'
	.db #0x00	; 0
	.db #0x00	; 0
	.db #0x5a	; 90	'Z'
	.db #0x00	; 0
	.db #0x00	; 0
	.db #0x5a	; 90	'Z'
	.db #0x00	; 0
	.db #0x00	; 0
	.db #0x5a	; 90	'Z'
	.db #0x00	; 0
	.db #0x00	; 0
	.db #0x5a	; 90	'Z'
	.db #0x00	; 0
	.db #0x00	; 0
	.db #0x5a	; 90	'Z'
	.db #0x00	; 0
	.db #0x00	; 0
	.db #0x5a	; 90	'Z'
	.db #0x00	; 0
	.db #0x00	; 0
	.db #0x5a	; 90	'Z'
	.db #0x00	; 0
	.db #0x00	; 0
	.db #0x5a	; 90	'Z'
	.db #0x00	; 0
	.db #0x00	; 0
	.db #0x5a	; 90	'Z'
	.db #0x00	; 0
	.db #0x00	; 0
	.db #0x5a	; 90	'Z'
	.db #0x00	; 0
	.db #0x00	; 0
	.db #0x12	; 18
	.db #0x10	; 16
	.db #0x00	; 0
	.db #0x5a	; 90	'Z'
	.db #0x00	; 0
	.db #0x00	; 0
	.db #0x5a	; 90	'Z'
	.db #0x00	; 0
	.db #0x00	; 0
	.db #0x5a	; 90	'Z'
	.db #0x00	; 0
	.db #0x00	; 0
	.db #0x5a	; 90	'Z'
	.db #0x00	; 0
	.db #0x00	; 0
	.db #0x5a	; 90	'Z'
	.db #0x00	; 0
	.db #0x00	; 0
	.db #0x5a	; 90	'Z'
	.db #0x00	; 0
	.db #0x00	; 0
	.db #0x5a	; 90	'Z'
	.db #0x00	; 0
	.db #0x00	; 0
_P21:
	.db #0x5a	; 90	'Z'
	.db #0x00	; 0
	.db #0x00	; 0
	.db #0x5a	; 90	'Z'
	.db #0x00	; 0
	.db #0x00	; 0
	.db #0x5a	; 90	'Z'
	.db #0x00	; 0
	.db #0x00	; 0
	.db #0x5a	; 90	'Z'
	.db #0x00	; 0
	.db #0x00	; 0
	.db #0x5a	; 90	'Z'
	.db #0x00	; 0
	.db #0x00	; 0
	.db #0x5a	; 90	'Z'
	.db #0x00	; 0
	.db #0x00	; 0
	.db #0x5a	; 90	'Z'
	.db #0x00	; 0
	.db #0x00	; 0
	.db #0x5a	; 90	'Z'
	.db #0x00	; 0
	.db #0x00	; 0
	.db #0x0b	; 11
	.db #0x10	; 16
	.db #0x00	; 0
	.db #0x5a	; 90	'Z'
	.db #0x00	; 0
	.db #0x00	; 0
	.db #0x5a	; 90	'Z'
	.db #0x00	; 0
	.db #0x00	; 0
	.db #0x5a	; 90	'Z'
	.db #0x00	; 0
	.db #0x00	; 0
	.db #0x5a	; 90	'Z'
	.db #0x00	; 0
	.db #0x00	; 0
	.db #0x5a	; 90	'Z'
	.db #0x00	; 0
	.db #0x00	; 0
	.db #0x5a	; 90	'Z'
	.db #0x00	; 0
	.db #0x00	; 0
	.db #0x5a	; 90	'Z'
	.db #0x00	; 0
	.db #0x00	; 0
	.db #0x5a	; 90	'Z'
	.db #0x00	; 0
	.db #0x00	; 0
	.db #0x5a	; 90	'Z'
	.db #0x00	; 0
	.db #0x00	; 0
	.db #0x5a	; 90	'Z'
	.db #0x00	; 0
	.db #0x00	; 0
	.db #0x5a	; 90	'Z'
	.db #0x00	; 0
	.db #0x00	; 0
	.db #0x5a	; 90	'Z'
	.db #0x00	; 0
	.db #0x00	; 0
	.db #0x5a	; 90	'Z'
	.db #0x00	; 0
	.db #0x00	; 0
	.db #0x0d	; 13
	.db #0x10	; 16
	.db #0x00	; 0
	.db #0x5a	; 90	'Z'
	.db #0x00	; 0
	.db #0x00	; 0
	.db #0x06	; 6
	.db #0x10	; 16
	.db #0x00	; 0
	.db #0x5a	; 90	'Z'
	.db #0x00	; 0
	.db #0x00	; 0
	.db #0x5a	; 90	'Z'
	.db #0x00	; 0
	.db #0x00	; 0
	.db #0x5a	; 90	'Z'
	.db #0x00	; 0
	.db #0x00	; 0
	.db #0x5a	; 90	'Z'
	.db #0x00	; 0
	.db #0x00	; 0
	.db #0x5a	; 90	'Z'
	.db #0x00	; 0
	.db #0x00	; 0
	.db #0x5a	; 90	'Z'
	.db #0x00	; 0
	.db #0x00	; 0
	.db #0x5a	; 90	'Z'
	.db #0x00	; 0
	.db #0x00	; 0
	.db #0x5a	; 90	'Z'
	.db #0x00	; 0
	.db #0x00	; 0
	.db #0x5a	; 90	'Z'
	.db #0x00	; 0
	.db #0x00	; 0
	.db #0x5a	; 90	'Z'
	.db #0x00	; 0
	.db #0x00	; 0
	.db #0x5a	; 90	'Z'
	.db #0x00	; 0
	.db #0x00	; 0
	.db #0x5a	; 90	'Z'
	.db #0x00	; 0
	.db #0x00	; 0
	.db #0x5a	; 90	'Z'
	.db #0x00	; 0
	.db #0x00	; 0
	.db #0x5a	; 90	'Z'
	.db #0x00	; 0
	.db #0x00	; 0
	.db #0x5a	; 90	'Z'
	.db #0x00	; 0
	.db #0x00	; 0
	.db #0x08	; 8
	.db #0x10	; 16
	.db #0x00	; 0
	.db #0x5a	; 90	'Z'
	.db #0x00	; 0
	.db #0x00	; 0
	.db #0x5a	; 90	'Z'
	.db #0x00	; 0
	.db #0x00	; 0
	.db #0x5a	; 90	'Z'
	.db #0x00	; 0
	.db #0x00	; 0
	.db #0x5a	; 90	'Z'
	.db #0x00	; 0
	.db #0x00	; 0
	.db #0x5a	; 90	'Z'
	.db #0x00	; 0
	.db #0x00	; 0
	.db #0x5a	; 90	'Z'
	.db #0x00	; 0
	.db #0x00	; 0
	.db #0x5a	; 90	'Z'
	.db #0x00	; 0
	.db #0x00	; 0
	.db #0x5a	; 90	'Z'
	.db #0x00	; 0
	.db #0x00	; 0
	.db #0x5a	; 90	'Z'
	.db #0x00	; 0
	.db #0x00	; 0
	.db #0x5a	; 90	'Z'
	.db #0x00	; 0
	.db #0x00	; 0
	.db #0x5a	; 90	'Z'
	.db #0x00	; 0
	.db #0x00	; 0
	.db #0x5a	; 90	'Z'
	.db #0x00	; 0
	.db #0x00	; 0
	.db #0x5a	; 90	'Z'
	.db #0x00	; 0
	.db #0x00	; 0
	.db #0x5a	; 90	'Z'
	.db #0x00	; 0
	.db #0x00	; 0
	.db #0x5a	; 90	'Z'
	.db #0x00	; 0
	.db #0x00	; 0
	.db #0x06	; 6
	.db #0x10	; 16
	.db #0x00	; 0
	.db #0x5a	; 90	'Z'
	.db #0x00	; 0
	.db #0x00	; 0
	.db #0x5a	; 90	'Z'
	.db #0x00	; 0
	.db #0x00	; 0
	.db #0x5a	; 90	'Z'
	.db #0x00	; 0
	.db #0x00	; 0
	.db #0x5a	; 90	'Z'
	.db #0x00	; 0
	.db #0x00	; 0
	.db #0x5a	; 90	'Z'
	.db #0x00	; 0
	.db #0x00	; 0
	.db #0x5a	; 90	'Z'
	.db #0x00	; 0
	.db #0x00	; 0
	.db #0x5a	; 90	'Z'
	.db #0x00	; 0
	.db #0x00	; 0
_P25:
	.db #0x0d	; 13
	.db #0x10	; 16
	.db #0x00	; 0
	.db #0x5a	; 90	'Z'
	.db #0x00	; 0
	.db #0x00	; 0
	.db #0x5a	; 90	'Z'
	.db #0x00	; 0
	.db #0x00	; 0
	.db #0x5a	; 90	'Z'
	.db #0x00	; 0
	.db #0x00	; 0
	.db #0x14	; 20
	.db #0x10	; 16
	.db #0x00	; 0
	.db #0x5a	; 90	'Z'
	.db #0x00	; 0
	.db #0x00	; 0
	.db #0x0f	; 15
	.db #0x10	; 16
	.db #0x00	; 0
	.db #0x5a	; 90	'Z'
	.db #0x00	; 0
	.db #0x00	; 0
	.db #0x10	; 16
	.db #0x10	; 16
	.db #0x00	; 0
	.db #0x5a	; 90	'Z'
	.db #0x00	; 0
	.db #0x00	; 0
	.db #0x17	; 23
	.db #0x10	; 16
	.db #0x00	; 0
	.db #0x5a	; 90	'Z'
	.db #0x00	; 0
	.db #0x00	; 0
	.db #0x5a	; 90	'Z'
	.db #0x00	; 0
	.db #0x00	; 0
	.db #0x5a	; 90	'Z'
	.db #0x00	; 0
	.db #0x00	; 0
	.db #0x5a	; 90	'Z'
	.db #0x00	; 0
	.db #0x00	; 0
	.db #0x5a	; 90	'Z'
	.db #0x00	; 0
	.db #0x00	; 0
	.db #0x5a	; 90	'Z'
	.db #0x00	; 0
	.db #0x00	; 0
	.db #0x5a	; 90	'Z'
	.db #0x00	; 0
	.db #0x00	; 0
	.db #0x5a	; 90	'Z'
	.db #0x00	; 0
	.db #0x00	; 0
	.db #0x5a	; 90	'Z'
	.db #0x00	; 0
	.db #0x00	; 0
	.db #0x5a	; 90	'Z'
	.db #0x00	; 0
	.db #0x00	; 0
	.db #0x5a	; 90	'Z'
	.db #0x00	; 0
	.db #0x00	; 0
	.db #0x10	; 16
	.db #0x10	; 16
	.db #0x00	; 0
	.db #0x5a	; 90	'Z'
	.db #0x00	; 0
	.db #0x00	; 0
	.db #0x12	; 18
	.db #0x10	; 16
	.db #0x00	; 0
	.db #0x5a	; 90	'Z'
	.db #0x00	; 0
	.db #0x00	; 0
	.db #0x16	; 22
	.db #0x10	; 16
	.db #0x00	; 0
	.db #0x5a	; 90	'Z'
	.db #0x00	; 0
	.db #0x00	; 0
	.db #0x5a	; 90	'Z'
	.db #0x00	; 0
	.db #0x00	; 0
	.db #0x5a	; 90	'Z'
	.db #0x00	; 0
	.db #0x00	; 0
	.db #0x5a	; 90	'Z'
	.db #0x00	; 0
	.db #0x00	; 0
	.db #0x5a	; 90	'Z'
	.db #0x00	; 0
	.db #0x00	; 0
	.db #0x5a	; 90	'Z'
	.db #0x00	; 0
	.db #0x00	; 0
	.db #0x5a	; 90	'Z'
	.db #0x00	; 0
	.db #0x00	; 0
	.db #0x5a	; 90	'Z'
	.db #0x00	; 0
	.db #0x00	; 0
	.db #0x5a	; 90	'Z'
	.db #0x00	; 0
	.db #0x00	; 0
	.db #0x5a	; 90	'Z'
	.db #0x00	; 0
	.db #0x00	; 0
	.db #0x5a	; 90	'Z'
	.db #0x00	; 0
	.db #0x00	; 0
	.db #0x12	; 18
	.db #0x10	; 16
	.db #0x00	; 0
	.db #0x5a	; 90	'Z'
	.db #0x00	; 0
	.db #0x00	; 0
	.db #0x14	; 20
	.db #0x10	; 16
	.db #0x00	; 0
	.db #0x5a	; 90	'Z'
	.db #0x00	; 0
	.db #0x00	; 0
	.db #0x5a	; 90	'Z'
	.db #0x00	; 0
	.db #0x00	; 0
	.db #0x5a	; 90	'Z'
	.db #0x00	; 0
	.db #0x00	; 0
	.db #0x17	; 23
	.db #0x10	; 16
	.db #0x00	; 0
	.db #0x5a	; 90	'Z'
	.db #0x00	; 0
	.db #0x00	; 0
	.db #0x16	; 22
	.db #0x10	; 16
	.db #0x00	; 0
	.db #0x5a	; 90	'Z'
	.db #0x00	; 0
	.db #0x00	; 0
	.db #0x5a	; 90	'Z'
	.db #0x00	; 0
	.db #0x00	; 0
	.db #0x5a	; 90	'Z'
	.db #0x00	; 0
	.db #0x00	; 0
	.db #0x1b	; 27
	.db #0x10	; 16
	.db #0x00	; 0
	.db #0x5a	; 90	'Z'
	.db #0x00	; 0
	.db #0x00	; 0
	.db #0x5a	; 90	'Z'
	.db #0x00	; 0
	.db #0x00	; 0
	.db #0x5a	; 90	'Z'
	.db #0x00	; 0
	.db #0x00	; 0
	.db #0x12	; 18
	.db #0x10	; 16
	.db #0x00	; 0
	.db #0x5a	; 90	'Z'
	.db #0x00	; 0
	.db #0x00	; 0
	.db #0x5a	; 90	'Z'
	.db #0x00	; 0
	.db #0x00	; 0
	.db #0x5a	; 90	'Z'
	.db #0x00	; 0
	.db #0x00	; 0
	.db #0x5a	; 90	'Z'
	.db #0x00	; 0
	.db #0x00	; 0
	.db #0x5a	; 90	'Z'
	.db #0x00	; 0
	.db #0x00	; 0
	.db #0x5a	; 90	'Z'
	.db #0x00	; 0
	.db #0x00	; 0
	.db #0x5a	; 90	'Z'
	.db #0x00	; 0
	.db #0x00	; 0
	.db #0x5a	; 90	'Z'
	.db #0x00	; 0
	.db #0x00	; 0
	.db #0x5a	; 90	'Z'
	.db #0x00	; 0
	.db #0x00	; 0
_P26:
	.db #0x5a	; 90	'Z'
	.db #0x00	; 0
	.db #0x00	; 0
	.db #0x5a	; 90	'Z'
	.db #0x00	; 0
	.db #0x00	; 0
	.db #0x5a	; 90	'Z'
	.db #0x00	; 0
	.db #0x00	; 0
	.db #0x5a	; 90	'Z'
	.db #0x00	; 0
	.db #0x00	; 0
	.db #0x5a	; 90	'Z'
	.db #0x00	; 0
	.db #0x00	; 0
	.db #0x5a	; 90	'Z'
	.db #0x00	; 0
	.db #0x00	; 0
	.db #0x5a	; 90	'Z'
	.db #0x00	; 0
	.db #0x00	; 0
	.db #0x5a	; 90	'Z'
	.db #0x00	; 0
	.db #0x00	; 0
	.db #0x0b	; 11
	.db #0x10	; 16
	.db #0x00	; 0
	.db #0x5a	; 90	'Z'
	.db #0x00	; 0
	.db #0x00	; 0
	.db #0x5a	; 90	'Z'
	.db #0x00	; 0
	.db #0x00	; 0
	.db #0x5a	; 90	'Z'
	.db #0x00	; 0
	.db #0x00	; 0
	.db #0x5a	; 90	'Z'
	.db #0x00	; 0
	.db #0x00	; 0
	.db #0x5a	; 90	'Z'
	.db #0x00	; 0
	.db #0x00	; 0
	.db #0x0d	; 13
	.db #0x10	; 16
	.db #0x00	; 0
	.db #0x5a	; 90	'Z'
	.db #0x00	; 0
	.db #0x00	; 0
	.db #0x5a	; 90	'Z'
	.db #0x00	; 0
	.db #0x00	; 0
	.db #0x5a	; 90	'Z'
	.db #0x00	; 0
	.db #0x00	; 0
	.db #0x04	; 4
	.db #0x10	; 16
	.db #0x00	; 0
	.db #0x5a	; 90	'Z'
	.db #0x00	; 0
	.db #0x00	; 0
	.db #0x03	; 3
	.db #0x10	; 16
	.db #0x00	; 0
	.db #0x5a	; 90	'Z'
	.db #0x00	; 0
	.db #0x00	; 0
	.db #0x04	; 4
	.db #0x10	; 16
	.db #0x00	; 0
	.db #0x5a	; 90	'Z'
	.db #0x00	; 0
	.db #0x00	; 0
	.db #0x03	; 3
	.db #0x10	; 16
	.db #0x00	; 0
	.db #0x5a	; 90	'Z'
	.db #0x00	; 0
	.db #0x00	; 0
	.db #0x5a	; 90	'Z'
	.db #0x00	; 0
	.db #0x00	; 0
	.db #0x5a	; 90	'Z'
	.db #0x00	; 0
	.db #0x00	; 0
	.db #0x5a	; 90	'Z'
	.db #0x00	; 0
	.db #0x00	; 0
	.db #0x5a	; 90	'Z'
	.db #0x00	; 0
	.db #0x00	; 0
	.db #0x08	; 8
	.db #0x10	; 16
	.db #0x00	; 0
	.db #0x5a	; 90	'Z'
	.db #0x00	; 0
	.db #0x00	; 0
	.db #0x0a	; 10
	.db #0x10	; 16
	.db #0x00	; 0
	.db #0x5a	; 90	'Z'
	.db #0x00	; 0
	.db #0x00	; 0
	.db #0x0f	; 15
	.db #0x10	; 16
	.db #0x00	; 0
	.db #0x5a	; 90	'Z'
	.db #0x00	; 0
	.db #0x00	; 0
	.db #0x0b	; 11
	.db #0x10	; 16
	.db #0x00	; 0
	.db #0x5a	; 90	'Z'
	.db #0x00	; 0
	.db #0x00	; 0
	.db #0x5a	; 90	'Z'
	.db #0x00	; 0
	.db #0x00	; 0
	.db #0x5a	; 90	'Z'
	.db #0x00	; 0
	.db #0x00	; 0
	.db #0x5a	; 90	'Z'
	.db #0x00	; 0
	.db #0x00	; 0
	.db #0x5a	; 90	'Z'
	.db #0x00	; 0
	.db #0x00	; 0
	.db #0x5a	; 90	'Z'
	.db #0x00	; 0
	.db #0x00	; 0
	.db #0x5a	; 90	'Z'
	.db #0x00	; 0
	.db #0x00	; 0
	.db #0x0f	; 15
	.db #0x10	; 16
	.db #0x00	; 0
	.db #0x5a	; 90	'Z'
	.db #0x00	; 0
	.db #0x00	; 0
	.db #0x0d	; 13
	.db #0x10	; 16
	.db #0x00	; 0
	.db #0x5a	; 90	'Z'
	.db #0x00	; 0
	.db #0x00	; 0
	.db #0x5a	; 90	'Z'
	.db #0x00	; 0
	.db #0x00	; 0
	.db #0x5a	; 90	'Z'
	.db #0x00	; 0
	.db #0x00	; 0
	.db #0x0b	; 11
	.db #0x10	; 16
	.db #0x00	; 0
	.db #0x5a	; 90	'Z'
	.db #0x00	; 0
	.db #0x00	; 0
	.db #0x0a	; 10
	.db #0x10	; 16
	.db #0x00	; 0
	.db #0x5a	; 90	'Z'
	.db #0x00	; 0
	.db #0x00	; 0
	.db #0x06	; 6
	.db #0x10	; 16
	.db #0x00	; 0
	.db #0x5a	; 90	'Z'
	.db #0x00	; 0
	.db #0x00	; 0
	.db #0x5a	; 90	'Z'
	.db #0x00	; 0
	.db #0x00	; 0
	.db #0x5a	; 90	'Z'
	.db #0x00	; 0
	.db #0x00	; 0
	.db #0x5a	; 90	'Z'
	.db #0x00	; 0
	.db #0x00	; 0
	.db #0x5a	; 90	'Z'
	.db #0x00	; 0
	.db #0x00	; 0
	.db #0x5a	; 90	'Z'
	.db #0x00	; 0
	.db #0x00	; 0
	.db #0x5a	; 90	'Z'
	.db #0x00	; 0
	.db #0x00	; 0
	.db #0x5a	; 90	'Z'
	.db #0x00	; 0
	.db #0x00	; 0
	.db #0x5a	; 90	'Z'
	.db #0x00	; 0
	.db #0x00	; 0
_P27:
	.db #0x5a	; 90	'Z'
	.db #0x00	; 0
	.db #0x00	; 0
	.db #0x5a	; 90	'Z'
	.db #0x00	; 0
	.db #0x00	; 0
	.db #0x5a	; 90	'Z'
	.db #0x00	; 0
	.db #0x00	; 0
	.db #0x5a	; 90	'Z'
	.db #0x00	; 0
	.db #0x00	; 0
	.db #0x5a	; 90	'Z'
	.db #0x00	; 0
	.db #0x00	; 0
	.db #0x5a	; 90	'Z'
	.db #0x00	; 0
	.db #0x00	; 0
	.db #0x5a	; 90	'Z'
	.db #0x00	; 0
	.db #0x00	; 0
	.db #0x5a	; 90	'Z'
	.db #0x00	; 0
	.db #0x00	; 0
	.db #0x0b	; 11
	.db #0x10	; 16
	.db #0x00	; 0
	.db #0x5a	; 90	'Z'
	.db #0x00	; 0
	.db #0x00	; 0
	.db #0x04	; 4
	.db #0x10	; 16
	.db #0x00	; 0
	.db #0x5a	; 90	'Z'
	.db #0x00	; 0
	.db #0x00	; 0
	.db #0x5a	; 90	'Z'
	.db #0x00	; 0
	.db #0x00	; 0
	.db #0x5a	; 90	'Z'
	.db #0x00	; 0
	.db #0x00	; 0
	.db #0x5a	; 90	'Z'
	.db #0x00	; 0
	.db #0x00	; 0
	.db #0x5a	; 90	'Z'
	.db #0x00	; 0
	.db #0x00	; 0
	.db #0x5a	; 90	'Z'
	.db #0x00	; 0
	.db #0x00	; 0
	.db #0x5a	; 90	'Z'
	.db #0x00	; 0
	.db #0x00	; 0
	.db #0x5a	; 90	'Z'
	.db #0x00	; 0
	.db #0x00	; 0
	.db #0x5a	; 90	'Z'
	.db #0x00	; 0
	.db #0x00	; 0
	.db #0x03	; 3
	.db #0x10	; 16
	.db #0x00	; 0
	.db #0x5a	; 90	'Z'
	.db #0x00	; 0
	.db #0x00	; 0
	.db #0x04	; 4
	.db #0x10	; 16
	.db #0x00	; 0
	.db #0x5a	; 90	'Z'
	.db #0x00	; 0
	.db #0x00	; 0
	.db #0x03	; 3
	.db #0x10	; 16
	.db #0x00	; 0
	.db #0x5a	; 90	'Z'
	.db #0x00	; 0
	.db #0x00	; 0
	.db #0x5a	; 90	'Z'
	.db #0x00	; 0
	.db #0x00	; 0
	.db #0x5a	; 90	'Z'
	.db #0x00	; 0
	.db #0x00	; 0
	.db #0x5a	; 90	'Z'
	.db #0x00	; 0
	.db #0x00	; 0
	.db #0x5a	; 90	'Z'
	.db #0x00	; 0
	.db #0x00	; 0
	.db #0x5a	; 90	'Z'
	.db #0x00	; 0
	.db #0x00	; 0
	.db #0x5a	; 90	'Z'
	.db #0x00	; 0
	.db #0x00	; 0
	.db #0x5a	; 90	'Z'
	.db #0x00	; 0
	.db #0x00	; 0
	.db #0x5a	; 90	'Z'
	.db #0x00	; 0
	.db #0x00	; 0
	.db #0x5a	; 90	'Z'
	.db #0x00	; 0
	.db #0x00	; 0
	.db #0x5a	; 90	'Z'
	.db #0x00	; 0
	.db #0x00	; 0
	.db #0x5a	; 90	'Z'
	.db #0x00	; 0
	.db #0x00	; 0
	.db #0x5a	; 90	'Z'
	.db #0x00	; 0
	.db #0x00	; 0
	.db #0x0b	; 11
	.db #0x10	; 16
	.db #0x00	; 0
	.db #0x5a	; 90	'Z'
	.db #0x00	; 0
	.db #0x00	; 0
	.db #0x08	; 8
	.db #0x10	; 16
	.db #0x00	; 0
	.db #0x5a	; 90	'Z'
	.db #0x00	; 0
	.db #0x00	; 0
	.db #0x5a	; 90	'Z'
	.db #0x00	; 0
	.db #0x00	; 0
	.db #0x5a	; 90	'Z'
	.db #0x00	; 0
	.db #0x00	; 0
	.db #0x5a	; 90	'Z'
	.db #0x00	; 0
	.db #0x00	; 0
	.db #0x5a	; 90	'Z'
	.db #0x00	; 0
	.db #0x00	; 0
	.db #0x5a	; 90	'Z'
	.db #0x00	; 0
	.db #0x00	; 0
	.db #0x5a	; 90	'Z'
	.db #0x00	; 0
	.db #0x00	; 0
	.db #0x0f	; 15
	.db #0x10	; 16
	.db #0x00	; 0
	.db #0x5a	; 90	'Z'
	.db #0x00	; 0
	.db #0x00	; 0
	.db #0x5a	; 90	'Z'
	.db #0x00	; 0
	.db #0x00	; 0
	.db #0x5a	; 90	'Z'
	.db #0x00	; 0
	.db #0x00	; 0
	.db #0x5a	; 90	'Z'
	.db #0x00	; 0
	.db #0x00	; 0
	.db #0x5a	; 90	'Z'
	.db #0x00	; 0
	.db #0x00	; 0
	.db #0x04	; 4
	.db #0x10	; 16
	.db #0x00	; 0
	.db #0x5a	; 90	'Z'
	.db #0x00	; 0
	.db #0x00	; 0
	.db #0x5a	; 90	'Z'
	.db #0x00	; 0
	.db #0x00	; 0
	.db #0x5a	; 90	'Z'
	.db #0x00	; 0
	.db #0x00	; 0
	.db #0x5a	; 90	'Z'
	.db #0x00	; 0
	.db #0x00	; 0
	.db #0x5a	; 90	'Z'
	.db #0x00	; 0
	.db #0x00	; 0
	.db #0x06	; 6
	.db #0x10	; 16
	.db #0x00	; 0
	.db #0x5a	; 90	'Z'
	.db #0x00	; 0
	.db #0x00	; 0
	.db #0x12	; 18
	.db #0x10	; 16
	.db #0x00	; 0
	.db #0x5a	; 90	'Z'
	.db #0x00	; 0
	.db #0x00	; 0
_P28:
	.db #0x5a	; 90	'Z'
	.db #0x00	; 0
	.db #0x00	; 0
	.db #0x5a	; 90	'Z'
	.db #0x00	; 0
	.db #0x00	; 0
	.db #0x5a	; 90	'Z'
	.db #0x00	; 0
	.db #0x00	; 0
	.db #0x5a	; 90	'Z'
	.db #0x00	; 0
	.db #0x00	; 0
	.db #0x5a	; 90	'Z'
	.db #0x00	; 0
	.db #0x00	; 0
	.db #0x5a	; 90	'Z'
	.db #0x00	; 0
	.db #0x00	; 0
	.db #0x5a	; 90	'Z'
	.db #0x00	; 0
	.db #0x00	; 0
	.db #0x5a	; 90	'Z'
	.db #0x00	; 0
	.db #0x00	; 0
	.db #0x5a	; 90	'Z'
	.db #0x00	; 0
	.db #0x00	; 0
	.db #0x5a	; 90	'Z'
	.db #0x00	; 0
	.db #0x00	; 0
	.db #0x5a	; 90	'Z'
	.db #0x00	; 0
	.db #0x00	; 0
	.db #0x5a	; 90	'Z'
	.db #0x00	; 0
	.db #0x00	; 0
	.db #0x5a	; 90	'Z'
	.db #0x00	; 0
	.db #0x00	; 0
	.db #0x5a	; 90	'Z'
	.db #0x00	; 0
	.db #0x00	; 0
	.db #0x5a	; 90	'Z'
	.db #0x00	; 0
	.db #0x00	; 0
	.db #0x5a	; 90	'Z'
	.db #0x00	; 0
	.db #0x00	; 0
	.db #0x5a	; 90	'Z'
	.db #0x00	; 0
	.db #0x00	; 0
	.db #0x5a	; 90	'Z'
	.db #0x00	; 0
	.db #0x00	; 0
	.db #0x3e	; 62
	.db #0x10	; 16
	.db #0x00	; 0
	.db #0x5a	; 90	'Z'
	.db #0x00	; 0
	.db #0x00	; 0
	.db #0x3f	; 63
	.db #0x20	; 32
	.db #0x00	; 0
	.db #0x5a	; 90	'Z'
	.db #0x00	; 0
	.db #0x00	; 0
	.db #0x3e	; 62
	.db #0x10	; 16
	.db #0x00	; 0
	.db #0x5a	; 90	'Z'
	.db #0x00	; 0
	.db #0x00	; 0
	.db #0x37	; 55	'7'
	.db #0x40	; 64
	.db #0x00	; 0
	.db #0x5a	; 90	'Z'
	.db #0x00	; 0
	.db #0x00	; 0
	.db #0x3e	; 62
	.db #0x10	; 16
	.db #0x00	; 0
	.db #0x5a	; 90	'Z'
	.db #0x00	; 0
	.db #0x00	; 0
	.db #0x5a	; 90	'Z'
	.db #0x00	; 0
	.db #0x00	; 0
	.db #0x5a	; 90	'Z'
	.db #0x00	; 0
	.db #0x00	; 0
	.db #0x37	; 55	'7'
	.db #0x40	; 64
	.db #0x00	; 0
	.db #0x5a	; 90	'Z'
	.db #0x00	; 0
	.db #0x00	; 0
	.db #0x3e	; 62
	.db #0x10	; 16
	.db #0x00	; 0
	.db #0x5a	; 90	'Z'
	.db #0x00	; 0
	.db #0x00	; 0
	.db #0x37	; 55	'7'
	.db #0x40	; 64
	.db #0x00	; 0
	.db #0x5a	; 90	'Z'
	.db #0x00	; 0
	.db #0x00	; 0
	.db #0x35	; 53	'5'
	.db #0x20	; 32
	.db #0x00	; 0
	.db #0x5a	; 90	'Z'
	.db #0x00	; 0
	.db #0x00	; 0
	.db #0x3e	; 62
	.db #0x10	; 16
	.db #0x00	; 0
	.db #0x5a	; 90	'Z'
	.db #0x00	; 0
	.db #0x00	; 0
	.db #0x37	; 55	'7'
	.db #0x40	; 64
	.db #0x00	; 0
	.db #0x5a	; 90	'Z'
	.db #0x00	; 0
	.db #0x00	; 0
	.db #0x5a	; 90	'Z'
	.db #0x00	; 0
	.db #0x00	; 0
	.db #0x5a	; 90	'Z'
	.db #0x00	; 0
	.db #0x00	; 0
	.db #0x3e	; 62
	.db #0x10	; 16
	.db #0x00	; 0
	.db #0x5a	; 90	'Z'
	.db #0x00	; 0
	.db #0x00	; 0
	.db #0x3e	; 62
	.db #0x10	; 16
	.db #0x00	; 0
	.db #0x5a	; 90	'Z'
	.db #0x00	; 0
	.db #0x00	; 0
	.db #0x35	; 53	'5'
	.db #0x20	; 32
	.db #0x00	; 0
	.db #0x5a	; 90	'Z'
	.db #0x00	; 0
	.db #0x00	; 0
	.db #0x3e	; 62
	.db #0x10	; 16
	.db #0x00	; 0
	.db #0x5a	; 90	'Z'
	.db #0x00	; 0
	.db #0x00	; 0
	.db #0x35	; 53	'5'
	.db #0x20	; 32
	.db #0x00	; 0
	.db #0x5a	; 90	'Z'
	.db #0x00	; 0
	.db #0x00	; 0
	.db #0x37	; 55	'7'
	.db #0x40	; 64
	.db #0x00	; 0
	.db #0x5a	; 90	'Z'
	.db #0x00	; 0
	.db #0x00	; 0
	.db #0x3e	; 62
	.db #0x10	; 16
	.db #0x00	; 0
	.db #0x3e	; 62
	.db #0x10	; 16
	.db #0x00	; 0
	.db #0x3e	; 62
	.db #0x10	; 16
	.db #0x00	; 0
	.db #0x35	; 53	'5'
	.db #0x20	; 32
	.db #0x00	; 0
	.db #0x37	; 55	'7'
	.db #0x40	; 64
	.db #0x00	; 0
	.db #0x3e	; 62
	.db #0x10	; 16
	.db #0x00	; 0
	.db #0x3e	; 62
	.db #0x10	; 16
	.db #0x00	; 0
	.db #0x3e	; 62
	.db #0x10	; 16
	.db #0x00	; 0
_order1:
	.dw _P14
	.dw _P4
	.dw _P0
	.dw _P8
	.dw _P19
	.dw _P19
	.dw _P25
_order2:
	.dw _P13
	.dw _P5
	.dw _P1
	.dw _P9
	.dw _P20
	.dw _P20
	.dw _P26
_order3:
	.dw _P2
	.dw _P6
	.dw _P2
	.dw _P10
	.dw _P21
	.dw _P21
	.dw _P27
_order4:
	.dw _P3
	.dw _P7
	.dw _P3
	.dw _P11
	.dw _P3
	.dw _P3
	.dw _P28
_duty_instruments:
	.db #0x08	; 8
	.db #0x00	; 0
	.db #0xf0	; 240
	.dw #0x0000
	.db #0x80	; 128
	.db #0x08	; 8
	.db #0x40	; 64
	.db #0xf0	; 240
	.dw #0x0000
	.db #0x80	; 128
	.db #0x08	; 8
	.db #0x80	; 128
	.db #0xf0	; 240
	.dw #0x0000
	.db #0x80	; 128
	.db #0x08	; 8
	.db #0xc0	; 192
	.db #0xf0	; 240
	.dw #0x0000
	.db #0x80	; 128
	.db #0x08	; 8
	.db #0x00	; 0
	.db #0xf1	; 241
	.dw #0x0000
	.db #0x80	; 128
	.db #0x08	; 8
	.db #0x40	; 64
	.db #0xf1	; 241
	.dw #0x0000
	.db #0x80	; 128
	.db #0x08	; 8
	.db #0x80	; 128
	.db #0xf1	; 241
	.dw #0x0000
	.db #0x80	; 128
	.db #0x08	; 8
	.db #0xc0	; 192
	.db #0xf1	; 241
	.dw #0x0000
	.db #0x80	; 128
	.db #0x08	; 8
	.db #0x80	; 128
	.db #0xf0	; 240
	.dw #0x0000
	.db #0x80	; 128
	.db #0x08	; 8
	.db #0x80	; 128
	.db #0xf0	; 240
	.dw #0x0000
	.db #0x80	; 128
	.db #0x08	; 8
	.db #0x80	; 128
	.db #0xf0	; 240
	.dw #0x0000
	.db #0x80	; 128
	.db #0x08	; 8
	.db #0x80	; 128
	.db #0xf0	; 240
	.dw #0x0000
	.db #0x80	; 128
_wave_instruments:
	.db #0x00	; 0
	.db #0x20	; 32
	.db #0x00	; 0
	.dw #0x0000
	.db #0x80	; 128
_noise_instruments:
	.db #0xc1	; 193
	.dw #0x0000
	.db #0x77	; 119	'w'
	.db #0x00	; 0
	.db #0x00	; 0
	.db #0xf2	; 242
	.dw #0x0000
	.db #0x00	; 0
	.db #0x00	; 0
	.db #0x00	; 0
	.db #0x4a	; 74	'J'
	.dw #0x0000
	.db #0x10	; 16
	.db #0x00	; 0
	.db #0x00	; 0
	.db #0x64	; 100	'd'
	.dw #0x0000
	.db #0x00	; 0
	.db #0x00	; 0
	.db #0x00	; 0
_waves:
	.db #0x00	; 0
	.db #0x00	; 0
	.db #0xff	; 255
	.db #0xff	; 255
	.db #0xff	; 255
	.db #0xff	; 255
	.db #0xff	; 255
	.db #0xff	; 255
	.db #0xff	; 255
	.db #0xff	; 255
	.db #0xff	; 255
	.db #0xff	; 255
	.db #0xff	; 255
	.db #0xff	; 255
	.db #0xff	; 255
	.db #0xff	; 255
_gorbytheme:
	.db #0x07	; 7
	.dw _order_cnt
	.dw _order1
	.dw _order2
	.dw _order3
	.dw _order4
	.dw _duty_instruments
	.dw _wave_instruments
	.dw _noise_instruments
	.dw #0x0000
	.dw _waves
___str_0:
	.ascii ">Press Start"
	.db 0x00
;src/main.c:73: void setupBackground(void)
;	---------------------------------
; Function setupBackground
; ---------------------------------
_setupBackground::
;src/main.c:76: set_bkg_data(0, splashscreen3_TILE_COUNT, splashscreen3_tiles);
	ld	de, #_splashscreen3_tiles
	push	de
	ld	hl, #0xb300
	push	hl
	call	_set_bkg_data
	add	sp, #4
;src/main.c:80: set_bkg_tiles(0, 0, 20, 18, splashscreen3_map);
	ld	de, #_splashscreen3_map
	push	de
	ld	hl, #0x1214
	push	hl
	xor	a, a
	rrca
	push	af
	call	_set_bkg_tiles
	add	sp, #6
;src/main.c:83: set_bkg_palette(0, 8, splashscreen3_palettes);
	ld	de, #_splashscreen3_palettes
	push	de
	ld	hl, #0x800
	push	hl
	call	_set_bkg_palette
	add	sp, #4
;src/main.c:87: VBK_REG = 1;
	ld	a, #0x01
	ldh	(_VBK_REG + 0), a
;src/main.c:88: set_bkg_tiles(0, 0, 20, 18, splashscreen3_map_attributes);
	ld	de, #_splashscreen3_map_attributes
	push	de
	ld	hl, #0x1214
	push	hl
	xor	a, a
	rrca
	push	af
	call	_set_bkg_tiles
	add	sp, #6
;src/main.c:91: VBK_REG = 0;
	xor	a, a
	ldh	(_VBK_REG + 0), a
;src/main.c:92: }
	ret
	.area _CODE
	.area _INITIALIZER
	.area _CABS (ABS)
