ASxxxx Linker V03.00/V05.40 + sdld,  page 1.
Hexadecimal  [32-Bits]

Area                       Addr        Size        Decimal Bytes (Attributes)
--------------------       ----        ----        ------- ----- ------------
.  .ABS.               00000000    00000000 =           0. bytes (ABS,CON)

        Value  Global            Value  Global            Value  Global    
        -----  ------            -----  ------            -----  ------    
     00000000  .__.ABS.  |    00000000  _rMBC7_SR |    00000000  _rRAMG   
     00000000  l__BASE   |    00000000  l__BSS    |    00000000  l__CABS  
     00000000  l__CODE_0 |    00000000  l__DABS   |    00000000  l__HEADER
     00000000  l__HEAP   |    00000000  l__HEAP_E |    00000000  l__HRAM  
     00000000  l__LIT    |    00000000  s__CABS   |    00000000  s__DABS  
     00000000  s__HEADER |    00000000  s__HEADER |    00000000  s__HEADER
     00000000  s__HEADER |    00000000  s__HEADER |    00000000  s__HEADER
     00000000  s__HEADER |    00000000  s__HEADER |    00000000  s__HEADER
     00000000  s__HEADER |    00000000  s__HEADER |    00000000  s__HEADER
     00000000  s__HEADER |    00000000  s__HEADER |    00000000  s__HEADER
     00000000  s__HEADER |    00000000  s__HEADER |    00000000  s__HEADER
     00000000  s__HEADER |    00000000  s__HRAM   |    00000000  s__HRAM12
     00000001  ___bank_N |    00000001  ___bank_P |    00000001  ___bank_T
     00000001  ___bank_W |    00000001  ___bank_W |    00000001  ___bank_W
     00000001  ___bank_W |    00000001  ___bank_W |    00000001  b_SetupPl
     00000001  b_UpdateC |    00000001  b_UpdateP |    00000001  l__GSFINA
     00000001  l__HEADER |    00000001  l__HEADER |    00000001  l__HEADER
     00000001  l__HEADER |    00000001  l__HEADER |    00000001  l__HEADER
     00000001  l__HEADER |    00000002  l__HEADER |    00000002  l__HEADER
     00000002  l__HEADER |    00000003  l__HEADER |    00000003  l__HRAM12
     00000005  l__HEADER |    00000006  l__HEADER |    00000007  l__HEADER
     00000008  l__HEADER |    0000000A  l__INITIA |    0000000A  l__INITIA
     0000000C  l__GSINIT |    00000030  l__HEADER |    00000031  l__DATA  
     00000060  l__HEADER |    000000AB  l__HEADER |    00000200  s__CODE  
     0000030F  l__CODE   |    0000050F  s__HOME   |    000005DE  l__HOME  
     00000AED  s__BASE   |    00000AED  s__CODE_0 |    00000AED  s__INITIA
     00000AED  s__LIT    |    00000AF7  s__GSINIT |    00000B03  s__GSFINA
     00002000  _rROMB0   |    00003000  _rROMB1   |    000033BC  l__CODE_1
     00004000  _rMBC7_SR |    00004000  _rRAMB    |    00008000  __VRAM   
     00008000  __VRAM800 |    00008800  __VRAM880 |    00009000  __VRAM900
     00009800  __SCRN0   |    00009C00  __SCRN1   |    0000A000  __SRAM   
     0000A000  _rMBC7_LA |    0000A010  _rMBC7_LA |    0000A020  _rMBC7_AC
     0000A030  _rMBC7_AC |    0000A040  _rMBC7_AC |    0000A050  _rMBC7_AC
     0000C000  __RAM     |    0000C000  _shadow_O |    0000C0A0  s__DATA  
     0000C0D1  s__BSS    |    0000C0D1  s__INITIA |    0000C0DB  s__HEAP  
     0000C0DB  s__HEAP_E |    0000D000  __RAMBANK |    0000E000  .STACK   
     0000FE00  __OAMRAM  |    0000FF00  _P1_REG   |    0000FF00  __IO     
     0000FF01  _SB_REG   |    0000FF02  _SC_REG   |    0000FF04  _DIV_REG 
     0000FF05  _TIMA_REG |    0000FF06  _TMA_REG  |    0000FF07  _TAC_REG 
     0000FF0F  _IF_REG   |    0000FF10  _NR10_REG |    0000FF11  _NR11_REG
     0000FF12  _NR12_REG |    0000FF13  _NR13_REG |    0000FF14  _NR14_REG
     0000FF16  _NR21_REG |    0000FF17  _NR22_REG |    0000FF18  _NR23_REG
     0000FF19  _NR24_REG |    0000FF1A  _NR30_REG |    0000FF1B  _NR31_REG
     0000FF1C  _NR32_REG |    0000FF1D  _NR33_REG |    0000FF1E  _NR34_REG
     0000FF20  _NR41_REG |    0000FF21  _NR42_REG |    0000FF22  _NR43_REG
     0000FF23  _NR44_REG |    0000FF24  _NR50_REG |    0000FF25  _NR51_REG
     0000FF26  _NR52_REG |    0000FF30  _AUD3WAVE |    0000FF30  _PCM_SAMP
     0000FF30  __AUD3WAV |    0000FF41  _STAT_REG |    0000FF42  _SCY_REG 
     0000FF43  _SCX_REG  |    0000FF44  _LY_REG   |    0000FF45  _LYC_REG 
     0000FF46  _DMA_REG  |    0000FF47  _BGP_REG  |    0000FF48  _OBP0_REG
ASxxxx Linker V03.00/V05.40 + sdld,  page 2.
Hexadecimal  [32-Bits]

Area                       Addr        Size        Decimal Bytes (Attributes)
--------------------       ----        ----        ------- ----- ------------
.  .ABS.               00000000    00000000 =           0. bytes (ABS,CON)

        Value  Global            Value  Global            Value  Global    
        -----  ------            -----  ------            -----  ------    
     0000FF49  _OBP1_REG |    0000FF4A  _WY_REG   |    0000FF4B  _WX_REG  
     0000FF4D  _KEY1_REG |    0000FF4E  _LCDC_REG |    0000FF4F  _VBK_REG 
     0000FF51  _HDMA1_RE |    0000FF52  _HDMA2_RE |    0000FF53  _HDMA3_RE
     0000FF54  _HDMA4_RE |    0000FF55  _HDMA5_RE |    0000FF56  _RP_REG  
     0000FF68  _BCPS_REG |    0000FF69  _BCPD_REG |    0000FF6A  _OCPS_REG
     0000FF6B  _OCPD_REG |    0000FF70  _SVBK_REG |    0000FF76  _PCM12_RE
     0000FF77  _PCM34_RE |    0000FF80  .refresh_ |    0000FF80  __HRAM   
     0000FFFF  _IE_REG   |    00014000  s__CODE_1
ASxxxx Linker V03.00/V05.40 + sdld,  page 3.
Hexadecimal  [32-Bits]

Area                       Addr        Size        Decimal Bytes (Attributes)
--------------------       ----        ----        ------- ----- ------------
_CODE                  00000200    0000030F =         783. bytes (REL,CON)

        Value  Global            Value  Global            Value  Global    
        -----  ------            -----  ------            -----  ------    
     00000200  _WaitForS |    00000223  _main     |    000002EB  _set_spri
     000002F0  _set_bkg_ |    000002F3  .set_pale |    00000312  _set_spri
     00000317  _set_bkg_ |    0000031A  .set_pale |    00000336  _hide_spr
     00000365  __divsuch |    0000036B  __modsuch |    00000374  __divusch
     0000037D  __modusch |    00000389  __divscha |    0000038E  __modscha
     00000395  __divsint |    0000039E  __modsint |    000003AA  __divucha
     000003AF  __moducha |    000003B6  __divuint |    000003BF  __moduint
     000003CB  .div8     |    000003CB  .mod8     |    000003D3  .div16   
     000003D3  .mod16    |    00000409  .divu8    |    00000409  .modu8   
     0000040C  .divu16   |    0000040C  .modu16   |    0000044C  __mulsuch
     0000044F  __mulusch |    00000458  __mulscha |    00000460  __mulint 
     0000047F  __mulucha |    00000491  _set_vram |    0000049A  _set_win_
     000004A3  _set_bkg_ |    000004D2  ___move_m
ASxxxx Linker V03.00/V05.40 + sdld,  page 4.
Hexadecimal  [32-Bits]

Area                       Addr        Size        Decimal Bytes (Attributes)
--------------------       ----        ----        ------- ----- ------------
_HEADER0               00000000    00000001 =           1. bytes (ABS,CON)

        Value  Global            Value  Global            Value  Global    
        -----  ------            -----  ------            -----  ------    
     00000020  .call_hl 
ASxxxx Linker V03.00/V05.40 + sdld,  page 5.
Hexadecimal  [32-Bits]

Area                       Addr        Size        Decimal Bytes (Attributes)
--------------------       ----        ----        ------- ----- ------------
_HEADER1               00000000    00000005 =           5. bytes (ABS,CON)

        Value  Global            Value  Global            Value  Global    
        -----  ------            -----  ------            -----  ------    
     00000028  .MemsetSm
ASxxxx Linker V03.00/V05.40 + sdld,  page 6.
Hexadecimal  [32-Bits]

Area                       Addr        Size        Decimal Bytes (Attributes)
--------------------       ----        ----        ------- ----- ------------
_HEADER2               00000000    00000007 =           7. bytes (ABS,CON)

        Value  Global            Value  Global            Value  Global    
        -----  ------            -----  ------            -----  ------    
     00000030  .MemcpySm
ASxxxx Linker V03.00/V05.40 + sdld,  page 7.
Hexadecimal  [32-Bits]

Area                       Addr        Size        Decimal Bytes (Attributes)
--------------------       ----        ----        ------- ----- ------------
_HEADER3               00000000    00000008 =           8. bytes (ABS,CON)

        Value  Global            Value  Global            Value  Global    
        -----  ------            -----  ------            -----  ------    
ASxxxx Linker V03.00/V05.40 + sdld,  page 8.
Hexadecimal  [32-Bits]

Area                       Addr        Size        Decimal Bytes (Attributes)
--------------------       ----        ----        ------- ----- ------------
_HEADER4               00000000    00000060 =          96. bytes (ABS,CON)

        Value  Global            Value  Global            Value  Global    
        -----  ------            -----  ------            -----  ------    
     00000080  .int      |    0000008F  _wait_int |    0000009C  __standar
     000000AB  _refresh_ |    000000CC  _set_inte
ASxxxx Linker V03.00/V05.40 + sdld,  page 9.
Hexadecimal  [32-Bits]

Area                       Addr        Size        Decimal Bytes (Attributes)
--------------------       ----        ----        ------- ----- ------------
_HEADER5               00000000    00000001 =           1. bytes (ABS,CON)

        Value  Global            Value  Global            Value  Global    
        -----  ------            -----  ------            -----  ------    
ASxxxx Linker V03.00/V05.40 + sdld,  page 10.
Hexadecimal  [32-Bits]

Area                       Addr        Size        Decimal Bytes (Attributes)
--------------------       ----        ----        ------- ----- ------------
_HEADER6               00000000    00000002 =           2. bytes (ABS,CON)

        Value  Global            Value  Global            Value  Global    
        -----  ------            -----  ------            -----  ------    
ASxxxx Linker V03.00/V05.40 + sdld,  page 11.
Hexadecimal  [32-Bits]

Area                       Addr        Size        Decimal Bytes (Attributes)
--------------------       ----        ----        ------- ----- ------------
_HEADER7               00000000    00000030 =          48. bytes (ABS,CON)

        Value  Global            Value  Global            Value  Global    
        -----  ------            -----  ------            -----  ------    
ASxxxx Linker V03.00/V05.40 + sdld,  page 12.
Hexadecimal  [32-Bits]

Area                       Addr        Size        Decimal Bytes (Attributes)
--------------------       ----        ----        ------- ----- ------------
_HEADER8               00000000    00000006 =           6. bytes (ABS,CON)

        Value  Global            Value  Global            Value  Global    
        -----  ------            -----  ------            -----  ------    
ASxxxx Linker V03.00/V05.40 + sdld,  page 13.
Hexadecimal  [32-Bits]

Area                       Addr        Size        Decimal Bytes (Attributes)
--------------------       ----        ----        ------- ----- ------------
_HEADER9               00000000    00000003 =           3. bytes (ABS,CON)

        Value  Global            Value  Global            Value  Global    
        -----  ------            -----  ------            -----  ------    
ASxxxx Linker V03.00/V05.40 + sdld,  page 14.
Hexadecimal  [32-Bits]

Area                       Addr        Size        Decimal Bytes (Attributes)
--------------------       ----        ----        ------- ----- ------------
_HEADERa               00000000    00000001 =           1. bytes (ABS,CON)

        Value  Global            Value  Global            Value  Global    
        -----  ------            -----  ------            -----  ------    
ASxxxx Linker V03.00/V05.40 + sdld,  page 15.
Hexadecimal  [32-Bits]

Area                       Addr        Size        Decimal Bytes (Attributes)
--------------------       ----        ----        ------- ----- ------------
_HEADERb               00000000    00000001 =           1. bytes (ABS,CON)

        Value  Global            Value  Global            Value  Global    
        -----  ------            -----  ------            -----  ------    
ASxxxx Linker V03.00/V05.40 + sdld,  page 16.
Hexadecimal  [32-Bits]

Area                       Addr        Size        Decimal Bytes (Attributes)
--------------------       ----        ----        ------- ----- ------------
_HEADERc               00000000    00000001 =           1. bytes (ABS,CON)

        Value  Global            Value  Global            Value  Global    
        -----  ------            -----  ------            -----  ------    
ASxxxx Linker V03.00/V05.40 + sdld,  page 17.
Hexadecimal  [32-Bits]

Area                       Addr        Size        Decimal Bytes (Attributes)
--------------------       ----        ----        ------- ----- ------------
_HEADERd               00000000    00000002 =           2. bytes (ABS,CON)

        Value  Global            Value  Global            Value  Global    
        -----  ------            -----  ------            -----  ------    
ASxxxx Linker V03.00/V05.40 + sdld,  page 18.
Hexadecimal  [32-Bits]

Area                       Addr        Size        Decimal Bytes (Attributes)
--------------------       ----        ----        ------- ----- ------------
_HEADERe               00000000    00000001 =           1. bytes (ABS,CON)

        Value  Global            Value  Global            Value  Global    
        -----  ------            -----  ------            -----  ------    
ASxxxx Linker V03.00/V05.40 + sdld,  page 19.
Hexadecimal  [32-Bits]

Area                       Addr        Size        Decimal Bytes (Attributes)
--------------------       ----        ----        ------- ----- ------------
_HEADERf               00000000    00000001 =           1. bytes (ABS,CON)

        Value  Global            Value  Global            Value  Global    
        -----  ------            -----  ------            -----  ------    
ASxxxx Linker V03.00/V05.40 + sdld,  page 20.
Hexadecimal  [32-Bits]

Area                       Addr        Size        Decimal Bytes (Attributes)
--------------------       ----        ----        ------- ----- ------------
_HEADER10              00000000    00000002 =           2. bytes (ABS,CON)

        Value  Global            Value  Global            Value  Global    
        -----  ------            -----  ------            -----  ------    
ASxxxx Linker V03.00/V05.40 + sdld,  page 21.
Hexadecimal  [32-Bits]

Area                       Addr        Size        Decimal Bytes (Attributes)
--------------------       ----        ----        ------- ----- ------------
_HEADER11              00000000    000000AB =         171. bytes (ABS,CON)

        Value  Global            Value  Global            Value  Global    
        -----  ------            -----  ------            -----  ------    
     00000150  .reset    |    00000150  _reset    |    00000157  .code_sta
     000001B9  _exit     |    000001BD  .wait_vbl |    000001BD  _vsync   
     000001BD  _wait_vbl |    000001CD  .remove_V |    000001CD  _remove_V
     000001D0  .remove_i |    000001ED  .add_VBL  |    000001ED  _add_VBL 
     000001F0  .add_int 
ASxxxx Linker V03.00/V05.40 + sdld,  page 22.
Hexadecimal  [32-Bits]

Area                       Addr        Size        Decimal Bytes (Attributes)
--------------------       ----        ----        ------- ----- ------------
_HOME                  0000050F    000005DE =        1502. bytes (REL,CON)

        Value  Global            Value  Global            Value  Global    
        -----  ------            -----  ------            -----  ------    
     0000050F  .memset_s |    00000518  .memcpy_s |    00000535  .display_
     00000535  _display_ |    0000054D  _SetCurre |    00000581  _setBKGPa
     00000594  _ShowCent |    00000655  _IsTileSo |    000006EF  _SetupCur
     0000083A  _UpdatePl |    00000859  _baseProp |    0000085A  _PlayerPa
     0000087A  _SetPlaye |    0000088A  _DrawPlay |    000008D6  _set_tile
     000008DB  _set_bkg_ |    000008DB  _set_win_ |    000008E3  _set_spri
     00000913  _set_bkg_ |    00000957  .set_xy_w |    00000960  .set_xy_b
     0000096F  .set_xy_s |    000009BB  _fill_bkg |    000009CD  .padup   
     000009CD  _waitpadu |    000009DD  .jpad     |    000009DD  _joypad  
     00000A05  _waitpad  |    00000A06  .wait_pad |    00000A0D  ___sdcc_b
     00000A27  _set_bkg_ |    00000A3B  .fill_rec |    00000A44  .fill_rec
     00000A91  .set_xy_w |    00000A9A  .set_xy_b |    00000AA9  .set_xy_t
ASxxxx Linker V03.00/V05.40 + sdld,  page 23.
Hexadecimal  [32-Bits]

Area                       Addr        Size        Decimal Bytes (Attributes)
--------------------       ----        ----        ------- ----- ------------
_INITIALIZER           00000AED    0000000A =          10. bytes (REL,CON)

        Value  Global            Value  Global            Value  Global    
        -----  ------            -----  ------            -----  ------    
ASxxxx Linker V03.00/V05.40 + sdld,  page 24.
Hexadecimal  [32-Bits]

Area                       Addr        Size        Decimal Bytes (Attributes)
--------------------       ----        ----        ------- ----- ------------
_GSINIT                00000AF7    0000000C =          12. bytes (REL,CON)

        Value  Global            Value  Global            Value  Global    
        -----  ------            -----  ------            -----  ------    
     00000AF7  gsinit   
ASxxxx Linker V03.00/V05.40 + sdld,  page 25.
Hexadecimal  [32-Bits]

Area                       Addr        Size        Decimal Bytes (Attributes)
--------------------       ----        ----        ------- ----- ------------
_GSFINAL               00000B03    00000001 =           1. bytes (REL,CON)

        Value  Global            Value  Global            Value  Global    
        -----  ------            -----  ------            -----  ------    
ASxxxx Linker V03.00/V05.40 + sdld,  page 26.
Hexadecimal  [32-Bits]

Area                       Addr        Size        Decimal Bytes (Attributes)
--------------------       ----        ----        ------- ----- ------------
_DATA                  0000C0A0    00000031 =          49. bytes (REL,CON)

        Value  Global            Value  Global            Value  Global    
        -----  ------            -----  ------            -----  ------    
     0000C0A0  __cpu     |    0000C0A1  __is_GBA  |    0000C0A2  .mode    
     0000C0A3  .sys_time |    0000C0A3  _sys_time |    0000C0A5  .int_0x40
     0000C0B1  _camera_x |    0000C0B3  _old_came |    0000C0B5  _map_pos_
     0000C0B6  _old_map_ |    0000C0B7  _redraw   |    0000C0B8  _currentL
     0000C0BA  _currentL |    0000C0BC  _currentL |    0000C0BE  _currentL
     0000C0C0  _currentL |    0000C0C2  _currentL |    0000C0C3  _currentA
     0000C0C4  _playerX  |    0000C0C6  _playerY  |    0000C0C8  _playerXV
     0000C0CA  _playerYV |    0000C0CC  .image_ti |    0000C0CD  ___curren
     0000C0CF  ___curren |    0000C0D0  ___curren
ASxxxx Linker V03.00/V05.40 + sdld,  page 27.
Hexadecimal  [32-Bits]

Area                       Addr        Size        Decimal Bytes (Attributes)
--------------------       ----        ----        ------- ----- ------------
_INITIALIZED           0000C0D1    0000000A =          10. bytes (REL,CON)

        Value  Global            Value  Global            Value  Global    
        -----  ------            -----  ------            -----  ------    
     0000C0D1  _joypadCu |    0000C0D2  _joypadPr |    0000C0D3  _currentL
     0000C0D4  _nextLeve |    0000C0D5  _facingRi |    0000C0D6  _playerJu
     0000C0D7  _threeFra |    0000C0D8  __submap_ |    0000C0D9  ___render
     0000C0DA  __map_til
ASxxxx Linker V03.00/V05.40 + sdld,  page 28.
Hexadecimal  [32-Bits]

Area                       Addr        Size        Decimal Bytes (Attributes)
--------------------       ----        ----        ------- ----- ------------
_HRAM12                00000000    00000003 =           3. bytes (ABS,CON)

        Value  Global            Value  Global            Value  Global    
        -----  ------            -----  ------            -----  ------    
     0000FF90  __current |    0000FF91  __vbl_don |    0000FF92  __shadow_
ASxxxx Linker V03.00/V05.40 + sdld,  page 29.
Hexadecimal  [32-Bits]

Area                       Addr        Size        Decimal Bytes (Attributes)
--------------------       ----        ----        ------- ----- ------------
_CODE_1                00014000    000033BC =       13244. bytes (REL,CON)

        Value  Global            Value  Global            Value  Global    
        -----  ------            -----  ------            -----  ------    
     00014000  _UpdateCa |    000140AE  _SetupPla |    000140D0  _UpdatePl
     0001464E  _NextLeve |    0001464E  ___func_N |    00014656  _NextLeve
     00014816  _NextLeve |    000148CA  _PlayerCh |    000148CA  ___func_P
     000148D2  _PlayerCh |    00014CB2  _PlayerCh |    00014CCE  _PlayerCh
     00014CEA  _PlayerCh |    00014D06  _PlayerCh |    00014D22  _PlayerCh
     00014D3E  _PlayerCh |    00014D5A  _PlayerCh |    00014D76  _PlayerCh
     00014D92  _PlayerCh |    00014DAE  _PlayerCh |    00014DCA  _PlayerCh
     00014DE6  _PlayerCh |    00014E02  _PlayerCh |    00014E1A  _TitleScr
     00014E1A  ___func_T |    00014E22  _TitleScr |    00015582  _TitleScr
     00015636  _World1Ar |    00015636  ___func_W |    00015DB6  _World1Ar
     00015DB6  ___func_W |    00016536  _World1Ti |    00016536  ___func_W
     00016556  _World1Ti |    00016756  _World1Ti |    00016776  _World2Ar
     00016776  ___func_W |    00016EF6  _World2Ti |    00016EF6  ___func_W
     00016F16  _World2Ti |    00017376  _World2Ti
ASxxxx Linker V03.00/V05.40 + sdld,  page 30.

Files Linked                              [ module(s) ]

../../../lib/ap/crt0.o                    [ Runtime ]
obj/pocket/camera.rel                     [ camera ]
obj/pocket/common.rel                     [ common ]
obj/pocket/level.rel                      [ level ]
obj/pocket/main.rel                       [ main ]
obj/pocket/player.rel                     [ player ]
/var/folders/82/3_rg_9197j7cgdr8vb5jbync0000gn/T/lcc45520.rel
                                          [ NextLevel ]
/var/folders/82/3_rg_9197j7cgdr8vb5jbync0000gn/T/lcc45521.rel
                                          [ PlayerCharacterSprites ]
/var/folders/82/3_rg_9197j7cgdr8vb5jbync0000gn/T/lcc45522.rel
                                          [ TitleScreen ]
/var/folders/82/3_rg_9197j7cgdr8vb5jbync0000gn/T/lcc45523.rel
                                          [ World1Area1 ]
/var/folders/82/3_rg_9197j7cgdr8vb5jbync0000gn/T/lcc45524.rel
                                          [ World1Area2 ]
/var/folders/82/3_rg_9197j7cgdr8vb5jbync0000gn/T/lcc45525.rel
                                          [ World1Tileset ]
/var/folders/82/3_rg_9197j7cgdr8vb5jbync0000gn/T/lcc45526.rel
                                          [ World2Area1 ]
/var/folders/82/3_rg_9197j7cgdr8vb5jbync0000gn/T/lcc45527.rel
                                          [ World2Tileset ]


Libraries Linked                          [ object file ]

../../../lib/ap/ap.lib                    [ sfr.o ]
../../../lib/ap/ap.lib                    [ cgb_palettes.o ]
../../../lib/ap/ap.lib                    [ metasprites_hide_spr.o ]
../../../lib/sm83/sm83.lib                [ div.o ]
../../../lib/sm83/sm83.lib                [ mul.o ]
../../../lib/ap/ap.lib                    [ set_data.o ]
../../../lib/ap/ap.lib                    [ set_tile.o ]
../../../lib/ap/ap.lib                    [ set_tile_submap.o ]
../../../lib/ap/ap.lib                    [ fill_rect_bk.o ]
../../../lib/ap/ap.lib                    [ pad.o ]
../../../lib/ap/ap.lib                    [ metasprites.o ]
../../../lib/ap/ap.lib                    [ ___sdcc_bcall_ehl.o ]
../../../lib/ap/ap.lib                    [ set_bk_t.o ]
../../../lib/ap/ap.lib                    [ fill_rect.o ]
../../../lib/ap/ap.lib                    [ set_xy_t.o ]

ASxxxx Linker V03.00/V05.40 + sdld,  page 31.

User Base Address Definitions

_DATA=0xC0A0
_CODE=0x0200
ASxxxx Linker V03.00/V05.40 + sdld,  page 32.

User Global Definitions

_shadow_OAM=0xC000
.STACK=0xE000
.refresh_OAM=0xFF80

