                                      1 ;--------------------------------------------------------
                                      2 ; File Created by SDCC : free open source ISO C Compiler
                                      3 ; Version 4.5.1 #15267 (Mac OS X ppc)
                                      4 ;--------------------------------------------------------
                                      5 	.module libc_memcpy
                                      6 	
                                      7 ;--------------------------------------------------------
                                      8 ; Public variables in this module
                                      9 ;--------------------------------------------------------
                                     10 	.globl _main
                                     11 	.globl _benchmark_memcpy
                                     12 	.globl _font_set
                                     13 	.globl _font_load
                                     14 	.globl _font_init
                                     15 	.globl _memset
                                     16 	.globl _memmove
                                     17 	.globl _memcpy
                                     18 	.globl _puts
                                     19 	.globl _printf
                                     20 	.globl _memcpy_dst
                                     21 	.globl _memcpy_src
                                     22 ;--------------------------------------------------------
                                     23 ; special function registers
                                     24 ;--------------------------------------------------------
                         00000000    25 _GG_STATE	=	0x0000
                         00000001    26 _GG_EXT_7BIT	=	0x0001
                         00000002    27 _GG_EXT_CTL	=	0x0002
                         00000003    28 _GG_SIO_SEND	=	0x0003
                         00000004    29 _GG_SIO_RECV	=	0x0004
                         00000005    30 _GG_SIO_CTL	=	0x0005
                         00000006    31 _GG_SOUND_PAN	=	0x0006
                         0000003E    32 _MEMORY_CTL	=	0x003e
                         0000003F    33 _JOY_CTL	=	0x003f
                         0000007E    34 _VCOUNTER	=	0x007e
                         0000007F    35 _PSG	=	0x007f
                         0000007F    36 _HCOUNTER	=	0x007f
                         000000BE    37 _VDP_DATA	=	0x00be
                         000000BF    38 _VDP_CMD	=	0x00bf
                         000000BF    39 _VDP_STATUS	=	0x00bf
                         000000DC    40 _JOY_PORT1	=	0x00dc
                         000000DD    41 _JOY_PORT2	=	0x00dd
                         000000F0    42 _FMADDRESS	=	0x00f0
                         000000F1    43 _FMDATA	=	0x00f1
                         000000F2    44 _AUDIOCTRL	=	0x00f2
                                     45 ;--------------------------------------------------------
                                     46 ; ram data
                                     47 ;--------------------------------------------------------
                                     48 	.area _DATA
                         0000FFFC    49 _RAM_CONTROL	=	0xfffc
                         0000FFF8    50 _GLASSES_3D	=	0xfff8
                         0000FFFD    51 _MAP_FRAME0	=	0xfffd
                         0000FFFE    52 _MAP_FRAME1	=	0xfffe
                         0000FFFF    53 _MAP_FRAME2	=	0xffff
    00000000                         54 _memcpy_dst::
    00000000                         55 	.ds 300
                                     56 ;--------------------------------------------------------
                                     57 ; ram data
                                     58 ;--------------------------------------------------------
                                     59 	.area _INITIALIZED
                                     60 ;--------------------------------------------------------
                                     61 ; absolute external ram data
                                     62 ;--------------------------------------------------------
                                     63 	.area _DABS (ABS)
                                     64 ;--------------------------------------------------------
                                     65 ; global & static initialisations
                                     66 ;--------------------------------------------------------
                                     67 	.area _HOME
                                     68 	.area _GSINIT
                                     69 	.area _GSFINAL
                                     70 	.area _GSINIT
                                     71 ;--------------------------------------------------------
                                     72 ; Home
                                     73 ;--------------------------------------------------------
                                     74 	.area _HOME
                                     75 	.area _HOME
                                     76 ;--------------------------------------------------------
                                     77 ; code
                                     78 ;--------------------------------------------------------
                                     79 	.area _CODE
                                     80 ;src/libc_memcpy.c:16: int benchmark_memcpy(int num, int size)
                                     81 ;	---------------------------------
                                     82 ; Function benchmark_memcpy
                                     83 ; ---------------------------------
    00000000                         84 _benchmark_memcpy::
    00000000 DD E5            [15]   85 	push	ix
    00000002 DD 21 00 00      [14]   86 	ld	ix,#0
    00000006 DD 39            [15]   87 	add	ix,sp
    00000008 F5               [11]   88 	push	af
    00000009 F5               [11]   89 	push	af
    0000000A 4D               [ 4]   90 	ld	c, l
    0000000B 44               [ 4]   91 	ld	b, h
    0000000C DD 73 FE         [19]   92 	ld	-2 (ix), e
    0000000F DD 72 FF         [19]   93 	ld	-1 (ix), d
                                     94 ;src/libc_memcpy.c:19: uint16_t start_time = sys_time;
    00000012 2Ar00r00         [16]   95 	ld	hl, (_sys_time)
    00000015 E3               [19]   96 	ex	(sp), hl
                                     97 ;src/libc_memcpy.c:20: for(i = 0; i < num; i++)
    00000016 21 00 00         [10]   98 	ld	hl, #0x0000
    00000019                         99 00103$:
    00000019 7D               [ 4]  100 	ld	a, l
    0000001A 91               [ 4]  101 	sub	a, c
    0000001B 7C               [ 4]  102 	ld	a, h
    0000001C 98               [ 4]  103 	sbc	a, b
    0000001D E2r22r00         [10]  104 	jp	PO, 00122$
    00000020 EE 80            [ 7]  105 	xor	a, #0x80
    00000022                        106 00122$:
    00000022 F2r3Cr00         [10]  107 	jp	P, 00101$
                                    108 ;src/libc_memcpy.c:21: memcpy(memcpy_dst, memcpy_src, size);
    00000025 E5               [11]  109 	push	hl
    00000026 C5               [11]  110 	push	bc
    00000027 DD 5E FE         [19]  111 	ld	e, -2 (ix)
    0000002A DD 56 FF         [19]  112 	ld	d, -1 (ix)
    0000002D D5               [11]  113 	push	de
    0000002E 11r4Fr00         [10]  114 	ld	de, #_memcpy_src
    00000031 21r00r00         [10]  115 	ld	hl, #_memcpy_dst
    00000034 CDr00r00         [17]  116 	call	_memcpy
    00000037 C1               [10]  117 	pop	bc
    00000038 E1               [10]  118 	pop	hl
                                    119 ;src/libc_memcpy.c:20: for(i = 0; i < num; i++)
    00000039 23               [ 6]  120 	inc	hl
    0000003A 18 DD            [12]  121 	jr	00103$
    0000003C                        122 00101$:
                                    123 ;src/libc_memcpy.c:22: return (int)(sys_time - start_time);
    0000003C 3Ar00r00         [13]  124 	ld	a, (_sys_time+0)
    0000003F DD 96 FC         [19]  125 	sub	a, -4 (ix)
    00000042 5F               [ 4]  126 	ld	e, a
    00000043 3Ar01r00         [13]  127 	ld	a, (_sys_time+1)
    00000046 DD 9E FD         [19]  128 	sbc	a, -3 (ix)
    00000049 57               [ 4]  129 	ld	d, a
                                    130 ;src/libc_memcpy.c:23: }
    0000004A DD F9            [10]  131 	ld	sp, ix
    0000004C DD E1            [14]  132 	pop	ix
    0000004E C9               [10]  133 	ret
    0000004F                        134 _memcpy_src:
    0000004F 00                     135 	.db #0x00	; 0
    00000050 00                     136 	.db 0x00
    00000051 00                     137 	.db 0x00
    00000052 00                     138 	.db 0x00
    00000053 00                     139 	.db 0x00
    00000054 00                     140 	.db 0x00
    00000055 00                     141 	.db 0x00
    00000056 00                     142 	.db 0x00
    00000057 00                     143 	.db 0x00
    00000058 00                     144 	.db 0x00
    00000059 00                     145 	.db 0x00
    0000005A 00                     146 	.db 0x00
    0000005B 00                     147 	.db 0x00
    0000005C 00                     148 	.db 0x00
    0000005D 00                     149 	.db 0x00
    0000005E 00                     150 	.db 0x00
    0000005F 00                     151 	.db 0x00
    00000060 00                     152 	.db 0x00
    00000061 00                     153 	.db 0x00
    00000062 00                     154 	.db 0x00
    00000063 00                     155 	.db 0x00
    00000064 00                     156 	.db 0x00
    00000065 00                     157 	.db 0x00
    00000066 00                     158 	.db 0x00
    00000067 00                     159 	.db 0x00
    00000068 00                     160 	.db 0x00
    00000069 00                     161 	.db 0x00
    0000006A 00                     162 	.db 0x00
    0000006B 00                     163 	.db 0x00
    0000006C 00                     164 	.db 0x00
    0000006D 00                     165 	.db 0x00
    0000006E 00                     166 	.db 0x00
    0000006F 00                     167 	.db 0x00
    00000070 00                     168 	.db 0x00
    00000071 00                     169 	.db 0x00
    00000072 00                     170 	.db 0x00
    00000073 00                     171 	.db 0x00
    00000074 00                     172 	.db 0x00
    00000075 00                     173 	.db 0x00
    00000076 00                     174 	.db 0x00
    00000077 00                     175 	.db 0x00
    00000078 00                     176 	.db 0x00
    00000079 00                     177 	.db 0x00
    0000007A 00                     178 	.db 0x00
    0000007B 00                     179 	.db 0x00
    0000007C 00                     180 	.db 0x00
    0000007D 00                     181 	.db 0x00
    0000007E 00                     182 	.db 0x00
    0000007F 00                     183 	.db 0x00
    00000080 00                     184 	.db 0x00
    00000081 00                     185 	.db 0x00
    00000082 00                     186 	.db 0x00
    00000083 00                     187 	.db 0x00
    00000084 00                     188 	.db 0x00
    00000085 00                     189 	.db 0x00
    00000086 00                     190 	.db 0x00
    00000087 00                     191 	.db 0x00
    00000088 00                     192 	.db 0x00
    00000089 00                     193 	.db 0x00
    0000008A 00                     194 	.db 0x00
    0000008B 00                     195 	.db 0x00
    0000008C 00                     196 	.db 0x00
    0000008D 00                     197 	.db 0x00
    0000008E 00                     198 	.db 0x00
    0000008F 00                     199 	.db 0x00
    00000090 00                     200 	.db 0x00
    00000091 00                     201 	.db 0x00
    00000092 00                     202 	.db 0x00
    00000093 00                     203 	.db 0x00
    00000094 00                     204 	.db 0x00
    00000095 00                     205 	.db 0x00
    00000096 00                     206 	.db 0x00
    00000097 00                     207 	.db 0x00
    00000098 00                     208 	.db 0x00
    00000099 00                     209 	.db 0x00
    0000009A 00                     210 	.db 0x00
    0000009B 00                     211 	.db 0x00
    0000009C 00                     212 	.db 0x00
    0000009D 00                     213 	.db 0x00
    0000009E 00                     214 	.db 0x00
    0000009F 00                     215 	.db 0x00
    000000A0 00                     216 	.db 0x00
    000000A1 00                     217 	.db 0x00
    000000A2 00                     218 	.db 0x00
    000000A3 00                     219 	.db 0x00
    000000A4 00                     220 	.db 0x00
    000000A5 00                     221 	.db 0x00
    000000A6 00                     222 	.db 0x00
    000000A7 00                     223 	.db 0x00
    000000A8 00                     224 	.db 0x00
    000000A9 00                     225 	.db 0x00
    000000AA 00                     226 	.db 0x00
    000000AB 00                     227 	.db 0x00
    000000AC 00                     228 	.db 0x00
    000000AD 00                     229 	.db 0x00
    000000AE 00                     230 	.db 0x00
    000000AF 00                     231 	.db 0x00
    000000B0 00                     232 	.db 0x00
    000000B1 00                     233 	.db 0x00
    000000B2 00                     234 	.db 0x00
    000000B3 00                     235 	.db 0x00
    000000B4 00                     236 	.db 0x00
    000000B5 00                     237 	.db 0x00
    000000B6 00                     238 	.db 0x00
    000000B7 00                     239 	.db 0x00
    000000B8 00                     240 	.db 0x00
    000000B9 00                     241 	.db 0x00
    000000BA 00                     242 	.db 0x00
    000000BB 00                     243 	.db 0x00
    000000BC 00                     244 	.db 0x00
    000000BD 00                     245 	.db 0x00
    000000BE 00                     246 	.db 0x00
    000000BF 00                     247 	.db 0x00
    000000C0 00                     248 	.db 0x00
    000000C1 00                     249 	.db 0x00
    000000C2 00                     250 	.db 0x00
    000000C3 00                     251 	.db 0x00
    000000C4 00                     252 	.db 0x00
    000000C5 00                     253 	.db 0x00
    000000C6 00                     254 	.db 0x00
    000000C7 00                     255 	.db 0x00
    000000C8 00                     256 	.db 0x00
    000000C9 00                     257 	.db 0x00
    000000CA 00                     258 	.db 0x00
    000000CB 00                     259 	.db 0x00
    000000CC 00                     260 	.db 0x00
    000000CD 00                     261 	.db 0x00
    000000CE 00                     262 	.db 0x00
    000000CF 00                     263 	.db 0x00
    000000D0 00                     264 	.db 0x00
    000000D1 00                     265 	.db 0x00
    000000D2 00                     266 	.db 0x00
    000000D3 00                     267 	.db 0x00
    000000D4 00                     268 	.db 0x00
    000000D5 00                     269 	.db 0x00
    000000D6 00                     270 	.db 0x00
    000000D7 00                     271 	.db 0x00
    000000D8 00                     272 	.db 0x00
    000000D9 00                     273 	.db 0x00
    000000DA 00                     274 	.db 0x00
    000000DB 00                     275 	.db 0x00
    000000DC 00                     276 	.db 0x00
    000000DD 00                     277 	.db 0x00
    000000DE 00                     278 	.db 0x00
    000000DF 00                     279 	.db 0x00
    000000E0 00                     280 	.db 0x00
    000000E1 00                     281 	.db 0x00
    000000E2 00                     282 	.db 0x00
    000000E3 00                     283 	.db 0x00
    000000E4 00                     284 	.db 0x00
    000000E5 00                     285 	.db 0x00
    000000E6 00                     286 	.db 0x00
    000000E7 00                     287 	.db 0x00
    000000E8 00                     288 	.db 0x00
    000000E9 00                     289 	.db 0x00
    000000EA 00                     290 	.db 0x00
    000000EB 00                     291 	.db 0x00
    000000EC 00                     292 	.db 0x00
    000000ED 00                     293 	.db 0x00
    000000EE 00                     294 	.db 0x00
    000000EF 00                     295 	.db 0x00
    000000F0 00                     296 	.db 0x00
    000000F1 00                     297 	.db 0x00
    000000F2 00                     298 	.db 0x00
    000000F3 00                     299 	.db 0x00
    000000F4 00                     300 	.db 0x00
    000000F5 00                     301 	.db 0x00
    000000F6 00                     302 	.db 0x00
    000000F7 00                     303 	.db 0x00
    000000F8 00                     304 	.db 0x00
    000000F9 00                     305 	.db 0x00
    000000FA 00                     306 	.db 0x00
    000000FB 00                     307 	.db 0x00
    000000FC 00                     308 	.db 0x00
    000000FD 00                     309 	.db 0x00
    000000FE 00                     310 	.db 0x00
    000000FF 00                     311 	.db 0x00
    00000100 00                     312 	.db 0x00
    00000101 00                     313 	.db 0x00
    00000102 00                     314 	.db 0x00
    00000103 00                     315 	.db 0x00
    00000104 00                     316 	.db 0x00
    00000105 00                     317 	.db 0x00
    00000106 00                     318 	.db 0x00
    00000107 00                     319 	.db 0x00
    00000108 00                     320 	.db 0x00
    00000109 00                     321 	.db 0x00
    0000010A 00                     322 	.db 0x00
    0000010B 00                     323 	.db 0x00
    0000010C 00                     324 	.db 0x00
    0000010D 00                     325 	.db 0x00
    0000010E 00                     326 	.db 0x00
    0000010F 00                     327 	.db 0x00
    00000110 00                     328 	.db 0x00
    00000111 00                     329 	.db 0x00
    00000112 00                     330 	.db 0x00
    00000113 00                     331 	.db 0x00
    00000114 00                     332 	.db 0x00
    00000115 00                     333 	.db 0x00
    00000116 00                     334 	.db 0x00
    00000117 00                     335 	.db 0x00
    00000118 00                     336 	.db 0x00
    00000119 00                     337 	.db 0x00
    0000011A 00                     338 	.db 0x00
    0000011B 00                     339 	.db 0x00
    0000011C 00                     340 	.db 0x00
    0000011D 00                     341 	.db 0x00
    0000011E 00                     342 	.db 0x00
    0000011F 00                     343 	.db 0x00
    00000120 00                     344 	.db 0x00
    00000121 00                     345 	.db 0x00
    00000122 00                     346 	.db 0x00
    00000123 00                     347 	.db 0x00
    00000124 00                     348 	.db 0x00
    00000125 00                     349 	.db 0x00
    00000126 00                     350 	.db 0x00
    00000127 00                     351 	.db 0x00
    00000128 00                     352 	.db 0x00
    00000129 00                     353 	.db 0x00
    0000012A 00                     354 	.db 0x00
    0000012B 00                     355 	.db 0x00
    0000012C 00                     356 	.db 0x00
    0000012D 00                     357 	.db 0x00
    0000012E 00                     358 	.db 0x00
    0000012F 00                     359 	.db 0x00
    00000130 00                     360 	.db 0x00
    00000131 00                     361 	.db 0x00
    00000132 00                     362 	.db 0x00
    00000133 00                     363 	.db 0x00
    00000134 00                     364 	.db 0x00
    00000135 00                     365 	.db 0x00
    00000136 00                     366 	.db 0x00
    00000137 00                     367 	.db 0x00
    00000138 00                     368 	.db 0x00
    00000139 00                     369 	.db 0x00
    0000013A 00                     370 	.db 0x00
    0000013B 00                     371 	.db 0x00
    0000013C 00                     372 	.db 0x00
    0000013D 00                     373 	.db 0x00
    0000013E 00                     374 	.db 0x00
    0000013F 00                     375 	.db 0x00
    00000140 00                     376 	.db 0x00
    00000141 00                     377 	.db 0x00
    00000142 00                     378 	.db 0x00
    00000143 00                     379 	.db 0x00
    00000144 00                     380 	.db 0x00
    00000145 00                     381 	.db 0x00
    00000146 00                     382 	.db 0x00
    00000147 00                     383 	.db 0x00
    00000148 00                     384 	.db 0x00
    00000149 00                     385 	.db 0x00
    0000014A 00                     386 	.db 0x00
    0000014B 00                     387 	.db 0x00
    0000014C 00                     388 	.db 0x00
    0000014D 00                     389 	.db 0x00
    0000014E 00                     390 	.db 0x00
    0000014F 00                     391 	.db 0x00
    00000150 00                     392 	.db 0x00
    00000151 00                     393 	.db 0x00
    00000152 00                     394 	.db 0x00
    00000153 00                     395 	.db 0x00
    00000154 00                     396 	.db 0x00
    00000155 00                     397 	.db 0x00
    00000156 00                     398 	.db 0x00
    00000157 00                     399 	.db 0x00
    00000158 00                     400 	.db 0x00
    00000159 00                     401 	.db 0x00
    0000015A 00                     402 	.db 0x00
    0000015B 00                     403 	.db 0x00
    0000015C 00                     404 	.db 0x00
    0000015D 00                     405 	.db 0x00
    0000015E 00                     406 	.db 0x00
    0000015F 00                     407 	.db 0x00
    00000160 00                     408 	.db 0x00
    00000161 00                     409 	.db 0x00
    00000162 00                     410 	.db 0x00
    00000163 00                     411 	.db 0x00
    00000164 00                     412 	.db 0x00
    00000165 00                     413 	.db 0x00
    00000166 00                     414 	.db 0x00
    00000167 00                     415 	.db 0x00
    00000168 00                     416 	.db 0x00
    00000169 00                     417 	.db 0x00
    0000016A 00                     418 	.db 0x00
    0000016B 00                     419 	.db 0x00
    0000016C 00                     420 	.db 0x00
    0000016D 00                     421 	.db 0x00
    0000016E 00                     422 	.db 0x00
    0000016F 00                     423 	.db 0x00
    00000170 00                     424 	.db 0x00
    00000171 00                     425 	.db 0x00
    00000172 00                     426 	.db 0x00
    00000173 00                     427 	.db 0x00
    00000174 00                     428 	.db 0x00
    00000175 00                     429 	.db 0x00
    00000176 00                     430 	.db 0x00
    00000177 00                     431 	.db 0x00
    00000178 00                     432 	.db 0x00
    00000179 00                     433 	.db 0x00
    0000017A 00                     434 	.db 0x00
                                    435 ;src/libc_memcpy.c:25: void main(void)
                                    436 ;	---------------------------------
                                    437 ; Function main
                                    438 ; ---------------------------------
    0000017B                        439 _main::
    0000017B DD E5            [15]  440 	push	ix
    0000017D DD 21 00 00      [14]  441 	ld	ix,#0
    00000181 DD 39            [15]  442 	add	ix,sp
    00000183 F5               [11]  443 	push	af
    00000184 F5               [11]  444 	push	af
                                    445 ;src/libc_memcpy.c:30: font_init();
    00000185 CDr00r00         [17]  446 	call	_font_init
                                    447 ;src/libc_memcpy.c:31: ibm_font = font_load(font_ibm);
    00000188 21r00r00         [10]  448 	ld	hl, #_font_ibm
    0000018B E5               [11]  449 	push	hl
    0000018C CDr00r00         [17]  450 	call	_font_load
                                    451 ;src/libc_memcpy.c:32: font_set(ibm_font);
    0000018F E3               [19]  452 	ex	(sp),hl
    00000190 CDr00r00         [17]  453 	call	_font_set
    00000193 F1               [10]  454 	pop	af
                                    455 ;src/libc_memcpy.c:36: char dst[4] = "dst";
    00000194 21 00 00         [10]  456 	ld	hl, #0
    00000197 39               [11]  457 	add	hl, sp
    00000198 36 64            [10]  458 	ld	(hl), #0x64
    0000019A DD 36 FD 73      [19]  459 	ld	-3 (ix), #0x73
    0000019E DD 36 FE 74      [19]  460 	ld	-2 (ix), #0x74
    000001A2 DD 36 FF 00      [19]  461 	ld	-1 (ix), #0x00
                                    462 ;src/libc_memcpy.c:37: const char* src = "src";
    000001A6 11r3Cr02         [10]  463 	ld	de, #___str_1+0
                                    464 ;src/libc_memcpy.c:38: printf("memcpy(dst,src,2)\n-> %s\n", memcpy(dst, src, 2));
    000001A9 D5               [11]  465 	push	de
    000001AA 01 02 00         [10]  466 	ld	bc, #0x0002
    000001AD C5               [11]  467 	push	bc
    000001AE CDr00r00         [17]  468 	call	_memcpy
    000001B1 EB               [ 4]  469 	ex	de, hl
    000001B2 01r40r02         [10]  470 	ld	bc, #___str_4+0
    000001B5 E5               [11]  471 	push	hl
    000001B6 C5               [11]  472 	push	bc
    000001B7 CDr00r00         [17]  473 	call	_printf
    000001BA F1               [10]  474 	pop	af
    000001BB F1               [10]  475 	pop	af
    000001BC D1               [10]  476 	pop	de
                                    477 ;src/libc_memcpy.c:42: char dst[4] = "dst";
    000001BD 21 00 00         [10]  478 	ld	hl, #0
    000001C0 39               [11]  479 	add	hl, sp
    000001C1 36 64            [10]  480 	ld	(hl), #0x64
    000001C3 DD 36 FD 73      [19]  481 	ld	-3 (ix), #0x73
    000001C7 DD 36 FE 74      [19]  482 	ld	-2 (ix), #0x74
    000001CB DD 36 FF 00      [19]  483 	ld	-1 (ix), #0x00
                                    484 ;src/libc_memcpy.c:44: printf("memmove(dst,src,2)\n-> %s\n", memmove(dst, src, 2));
    000001CF 01 02 00         [10]  485 	ld	bc, #0x0002
    000001D2 C5               [11]  486 	push	bc
    000001D3 D5               [11]  487 	push	de
    000001D4 E5               [11]  488 	push	hl
    000001D5 CDr00r00         [17]  489 	call	_memmove
    000001D8 F1               [10]  490 	pop	af
    000001D9 F1               [10]  491 	pop	af
    000001DA F1               [10]  492 	pop	af
    000001DB 01r59r02         [10]  493 	ld	bc, #___str_5+0
    000001DE E5               [11]  494 	push	hl
    000001DF C5               [11]  495 	push	bc
    000001E0 CDr00r00         [17]  496 	call	_printf
    000001E3 F1               [10]  497 	pop	af
    000001E4 F1               [10]  498 	pop	af
                                    499 ;src/libc_memcpy.c:48: char dst[4] = "dst";
    000001E5 21 00 00         [10]  500 	ld	hl, #0
    000001E8 39               [11]  501 	add	hl, sp
    000001E9 36 64            [10]  502 	ld	(hl), #0x64
    000001EB DD 36 FD 73      [19]  503 	ld	-3 (ix), #0x73
    000001EF DD 36 FE 74      [19]  504 	ld	-2 (ix), #0x74
    000001F3 DD 36 FF 00      [19]  505 	ld	-1 (ix), #0x00
                                    506 ;src/libc_memcpy.c:49: printf("memset(dst,x,2)\n-> %s\n", memset(dst, 'x', 2));
    000001F7 11 02 00         [10]  507 	ld	de, #0x0002
    000001FA D5               [11]  508 	push	de
    000001FB 11 78 00         [10]  509 	ld	de, #0x0078
    000001FE D5               [11]  510 	push	de
    000001FF E5               [11]  511 	push	hl
    00000200 CDr00r00         [17]  512 	call	_memset
    00000203 01r73r02         [10]  513 	ld	bc, #___str_6+0
    00000206 E5               [11]  514 	push	hl
    00000207 C5               [11]  515 	push	bc
    00000208 CDr00r00         [17]  516 	call	_printf
    0000020B F1               [10]  517 	pop	af
    0000020C F1               [10]  518 	pop	af
                                    519 ;src/libc_memcpy.c:52: printf("\nBenchmark memcpy:\n");
    0000020D 21r8Ar02         [10]  520 	ld	hl, #___str_8
    00000210 CDr00r00         [17]  521 	call	_puts
                                    522 ;src/libc_memcpy.c:54: printf("800*memcpy(d,s,150)\n-> %d frames\n", benchmark_memcpy(800, 150));
    00000213 11 96 00         [10]  523 	ld	de, #0x0096
    00000216 21 20 03         [10]  524 	ld	hl, #0x0320
    00000219 CDr00r00         [17]  525 	call	_benchmark_memcpy
    0000021C D5               [11]  526 	push	de
    0000021D 21r9Dr02         [10]  527 	ld	hl, #___str_9
    00000220 E5               [11]  528 	push	hl
    00000221 CDr00r00         [17]  529 	call	_printf
    00000224 F1               [10]  530 	pop	af
    00000225 F1               [10]  531 	pop	af
                                    532 ;src/libc_memcpy.c:55: printf("400*memcpy(d,s,300)\n-> %d frames\n", benchmark_memcpy(400, 300));
    00000226 11 2C 01         [10]  533 	ld	de, #0x012c
    00000229 21 90 01         [10]  534 	ld	hl, #0x0190
    0000022C CDr00r00         [17]  535 	call	_benchmark_memcpy
    0000022F D5               [11]  536 	push	de
    00000230 21rBFr02         [10]  537 	ld	hl, #___str_10
    00000233 E5               [11]  538 	push	hl
    00000234 CDr00r00         [17]  539 	call	_printf
                                    540 ;src/libc_memcpy.c:57: }
    00000237 DD F9            [10]  541 	ld	sp,ix
    00000239 DD E1            [14]  542 	pop	ix
    0000023B C9               [10]  543 	ret
    0000023C                        544 ___str_1:
    0000023C 73 72 63               545 	.ascii "src"
    0000023F 00                     546 	.db 0x00
    00000240                        547 ___str_4:
    00000240 6D 65 6D 63 70 79 28   548 	.ascii "memcpy(dst,src,2)"
             64 73 74 2C 73 72 63
             2C 32 29
    00000251 0A                     549 	.db 0x0a
    00000252 2D 3E 20 25 73         550 	.ascii "-> %s"
    00000257 0A                     551 	.db 0x0a
    00000258 00                     552 	.db 0x00
    00000259                        553 ___str_5:
    00000259 6D 65 6D 6D 6F 76 65   554 	.ascii "memmove(dst,src,2)"
             28 64 73 74 2C 73 72
             63 2C 32 29
    0000026B 0A                     555 	.db 0x0a
    0000026C 2D 3E 20 25 73         556 	.ascii "-> %s"
    00000271 0A                     557 	.db 0x0a
    00000272 00                     558 	.db 0x00
    00000273                        559 ___str_6:
    00000273 6D 65 6D 73 65 74 28   560 	.ascii "memset(dst,x,2)"
             64 73 74 2C 78 2C 32
             29
    00000282 0A                     561 	.db 0x0a
    00000283 2D 3E 20 25 73         562 	.ascii "-> %s"
    00000288 0A                     563 	.db 0x0a
    00000289 00                     564 	.db 0x00
    0000028A                        565 ___str_8:
    0000028A 0A                     566 	.db 0x0a
    0000028B 42 65 6E 63 68 6D 61   567 	.ascii "Benchmark memcpy:"
             72 6B 20 6D 65 6D 63
             70 79 3A
    0000029C 00                     568 	.db 0x00
    0000029D                        569 ___str_9:
    0000029D 38 30 30 2A 6D 65 6D   570 	.ascii "800*memcpy(d,s,150)"
             63 70 79 28 64 2C 73
             2C 31 35 30 29
    000002B0 0A                     571 	.db 0x0a
    000002B1 2D 3E 20 25 64 20 66   572 	.ascii "-> %d frames"
             72 61 6D 65 73
    000002BD 0A                     573 	.db 0x0a
    000002BE 00                     574 	.db 0x00
    000002BF                        575 ___str_10:
    000002BF 34 30 30 2A 6D 65 6D   576 	.ascii "400*memcpy(d,s,300)"
             63 70 79 28 64 2C 73
             2C 33 30 30 29
    000002D2 0A                     577 	.db 0x0a
    000002D3 2D 3E 20 25 64 20 66   578 	.ascii "-> %d frames"
             72 61 6D 65 73
    000002DF 0A                     579 	.db 0x0a
    000002E0 00                     580 	.db 0x00
                                    581 	.area _CODE
                                    582 	.area _INITIALIZER
                                    583 	.area _CABS (ABS)
